; ModuleID = './a.4.taffotmp.ll'
source_filename = "main.cpp"
target datalayout = "e-m:e-p270:32:32-p271:32:32-p272:64:64-i64:64-f80:128-n8:16:32:64-S128"
target triple = "x86_64-pc-linux-gnu"

%struct._IO_FILE = type { i32, i8*, i8*, i8*, i8*, i8*, i8*, i8*, i8*, i8*, i8*, i8*, %struct._IO_marker*, %struct._IO_FILE*, i32, i32, i64, i16, i8, [1 x i8], i8*, i64, i8*, i8*, i8*, i8*, i64, i32, [20 x i8] }
%struct._IO_marker = type { %struct._IO_marker*, %struct._IO_FILE*, i32 }

$_ZSt3powIidEN9__gnu_cxx11__promote_2IT_T0_NS0_9__promoteIS2_Xsr3std12__is_integerIS2_EE7__valueEE6__typeENS4_IS3_Xsr3std12__is_integerIS3_EE7__valueEE6__typeEE6__typeES2_S3_ = comdat any

@params_kVdd = dso_local global i16 0, align 2, !taffo.initweight !0, !taffo.info !1
@.str = private unnamed_addr constant [37 x i8] c"scalar(range(-32768,32767) disabled)\00", section "llvm.metadata", !taffo.info !3
@.str.1 = private unnamed_addr constant [17 x i8] c"./MLX90640_API.h\00", section "llvm.metadata", !taffo.info !5
@params_vdd25 = dso_local global i16 0, align 2, !taffo.initweight !0, !taffo.info !1
@params_KvPTAT = dso_local global float 0.000000e+00, align 4, !taffo.initweight !0, !taffo.info !7
@.str.2 = private unnamed_addr constant [37 x i8] c"scalar(range(-0.0078, 0.0154) final)\00", section "llvm.metadata", !taffo.info !3
@params_KtPTAT = dso_local global float 0.000000e+00, align 4, !taffo.initweight !0, !taffo.info !10
@.str.3 = private unnamed_addr constant [30 x i8] c"scalar(range(-64, 128) final)\00", section "llvm.metadata", !taffo.info !3
@params_vPTAT25 = dso_local global i16 0, align 2, !taffo.initweight !0, !taffo.info !1
@params_alphaPTAT = dso_local global float 0.000000e+00, align 4, !taffo.initweight !0, !taffo.info !13
@.str.4 = private unnamed_addr constant [30 x i8] c"scalar(range(8, 11.75) final)\00", section "llvm.metadata", !taffo.info !3
@params_gainEE = dso_local global i16 0, align 2, !taffo.initweight !0, !taffo.info !1
@params_tgc = dso_local global float 0.000000e+00, align 4, !taffo.initweight !0, !taffo.info !16
@.str.5 = private unnamed_addr constant [27 x i8] c"scalar(range(-4, 8) final)\00", section "llvm.metadata", !taffo.info !3
@params_cpKv = dso_local global float 0.000000e+00, align 4, !taffo.initweight !0, !taffo.info !19
@.str.6 = private unnamed_addr constant [34 x i8] c"scalar(range(-0.0039, 255) final)\00", section "llvm.metadata", !taffo.info !3
@params_cpKta = dso_local global float 0.000000e+00, align 4, !taffo.initweight !0, !taffo.info !21
@.str.7 = private unnamed_addr constant [28 x i8] c"scalar(range(0, 255) final)\00", section "llvm.metadata", !taffo.info !3
@params_resolutionEE = dso_local global i32 0, align 4, !taffo.initweight !0, !taffo.info !24
@.str.8 = private unnamed_addr constant [30 x i8] c"scalar(range(0,256) disabled)\00", section "llvm.metadata", !taffo.info !3
@params_calibrationModeEE = dso_local global i8 0, align 1, !taffo.info !26
@params_KsTa = dso_local global float 0.000000e+00, align 4, !taffo.initweight !0, !taffo.info !28
@.str.9 = private unnamed_addr constant [26 x i8] c"scalar(range(-1,1) final)\00", section "llvm.metadata", !taffo.info !3
@params_ksTo = dso_local global [4 x float] zeroinitializer, align 16, !taffo.initweight !0, !taffo.info !30
@.str.10 = private unnamed_addr constant [25 x i8] c"scalar(range(-256, 255))\00", section "llvm.metadata", !taffo.info !3
@params_ct = dso_local global [4 x i16] zeroinitializer, align 2, !taffo.initweight !0, !taffo.info !1
@params_alpha = dso_local global [768 x float] zeroinitializer, align 16, !taffo.info !33
@params_offset = dso_local global [768 x i16] zeroinitializer, align 16, !taffo.initweight !0, !taffo.info !1
@params_kta = dso_local global [768 x float] zeroinitializer, align 16, !taffo.initweight !0, !taffo.info !35
@.str.11 = private unnamed_addr constant [35 x i8] c"scalar(range(-131200,98431) final)\00", section "llvm.metadata", !taffo.info !3
@params_kv = dso_local global [768 x float] zeroinitializer, align 16, !taffo.initweight !0, !taffo.info !38
@.str.12 = private unnamed_addr constant [26 x i8] c"scalar(range(-8,7) final)\00", section "llvm.metadata", !taffo.info !3
@params_cpAlpha = dso_local global [2 x float] zeroinitializer, align 4, !taffo.initweight !0, !taffo.info !40
@.str.13 = private unnamed_addr constant [32 x i8] c"scalar(range(-512, 1527) final)\00", section "llvm.metadata", !taffo.info !3
@params_cpOffset = dso_local global [2 x i16] zeroinitializer, align 2, !taffo.initweight !0, !taffo.info !1
@params_ilChessC = dso_local global [3 x float] zeroinitializer, align 4, !taffo.initweight !0, !taffo.info !42
@.str.14 = private unnamed_addr constant [9 x i8] c"scalar()\00", section "llvm.metadata", !taffo.info !3
@params_brokenPixels = dso_local global [5 x i16] zeroinitializer, align 2, !taffo.initweight !0, !taffo.info !44
@.str.15 = private unnamed_addr constant [32 x i8] c"scalar(range(0,65536) disabled)\00", section "llvm.metadata", !taffo.info !3
@params_outlierPixels = dso_local global [5 x i16] zeroinitializer, align 2, !taffo.initweight !0, !taffo.info !44
@.str.16 = private unnamed_addr constant [38 x i8] c"MLX90640_GetFrameData tried %d times\0A\00", align 1, !taffo.info !46
@.str.22 = private unnamed_addr constant [12 x i8] c"taTO %.10f\0A\00", align 1, !taffo.info !46
@.str.23 = private unnamed_addr constant [12 x i8] c"trTO %.10f\0A\00", align 1, !taffo.info !46
@.str.24 = private unnamed_addr constant [19 x i8] c"taTO Kelvin %.10f\0A\00", align 1, !taffo.info !48
@.str.25 = private unnamed_addr constant [11 x i8] c"ta4 %.10f\0A\00", align 1, !taffo.info !46
@.str.26 = private unnamed_addr constant [11 x i8] c"tr4 %.10f\0A\00", align 1, !taffo.info !46
@.str.27 = private unnamed_addr constant [10 x i8] c"taTr1 %e\0A\00", align 1, !taffo.info !46
@.str.28 = private unnamed_addr constant [32 x i8] c"taTr2 %.10f (emissivity=%.10f)\0A\00", align 1, !taffo.info !50
@.str.29 = private unnamed_addr constant [12 x i8] c"taTr %.10f\0A\00", align 1, !taffo.info !46
@.str.30 = private unnamed_addr constant [19 x i8] c"irDataBGain %.10f\0A\00", align 1, !taffo.info !46
@.str.31 = private unnamed_addr constant [19 x i8] c"irDataAGain %.10f\0A\00", align 1, !taffo.info !46
@.str.32 = private unnamed_addr constant [10 x i8] c"ta %.10f\0A\00", align 1, !taffo.info !46
@.str.33 = private unnamed_addr constant [11 x i8] c"ir1 %.10f\0A\00", align 1, !taffo.info !52
@.str.34 = private unnamed_addr constant [11 x i8] c"ir2 %.10f\0A\00", align 1, !taffo.info !52
@.str.35 = private unnamed_addr constant [11 x i8] c"ir3 %.10f\0A\00", align 1, !taffo.info !52
@.str.36 = private unnamed_addr constant [11 x i8] c"ir4 %.10f\0A\00", align 1, !taffo.info !52
@.str.37 = private unnamed_addr constant [18 x i8] c"params_offset %d\0A\00", align 1, !taffo.info !46
@.str.38 = private unnamed_addr constant [11 x i8] c"ir5 %.10f\0A\00", align 1, !taffo.info !52
@.str.39 = private unnamed_addr constant [11 x i8] c"ir6 %.10f\0A\00", align 1, !taffo.info !52
@.str.40 = private unnamed_addr constant [11 x i8] c"ir7 %.10f\0A\00", align 1, !taffo.info !52
@.str.41 = private unnamed_addr constant [11 x i8] c"ir8 %.10f\0A\00", align 1, !taffo.info !52
@.str.42 = private unnamed_addr constant [11 x i8] c"ir9 %.10f\0A\00", align 1, !taffo.info !52
@.str.43 = private unnamed_addr constant [19 x i8] c"irDataACalc %.10f\0A\00", align 1, !taffo.info !46
@.str.44 = private unnamed_addr constant [11 x i8] c"tgc %.10f\0A\00", align 1, !taffo.info !46
@.str.45 = private unnamed_addr constant [16 x i8] c"cpAlpha %.10f \0A\00", align 1, !taffo.info !54
@.str.46 = private unnamed_addr constant [10 x i8] c"a1 %.10f\0A\00", align 1, !taffo.info !56
@.str.47 = private unnamed_addr constant [20 x i8] c"alphastruct %.10f \0A\00", align 1, !taffo.info !58
@.str.48 = private unnamed_addr constant [10 x i8] c"a2 %.10f\0A\00", align 1, !taffo.info !56
@.str.49 = private unnamed_addr constant [10 x i8] c"a3 %.10f\0A\00", align 1, !taffo.info !56
@.str.50 = private unnamed_addr constant [10 x i8] c"a4 %.10f\0A\00", align 1, !taffo.info !56
@.str.51 = private unnamed_addr constant [14 x i8] c"irData %.10f\0A\00", align 1, !taffo.info !46
@.str.52 = private unnamed_addr constant [12 x i8] c"gain %.10f\0A\00", align 1, !taffo.info !60
@.str.53 = private unnamed_addr constant [13 x i8] c"alpha %.10f\0A\00", align 1, !taffo.info !54
@.str.54 = private unnamed_addr constant [10 x i8] c"s1 %.10f\0A\00", align 1, !taffo.info !3
@.str.55 = private unnamed_addr constant [10 x i8] c"s2 %.10f\0A\00", align 1, !taffo.info !3
@.str.56 = private unnamed_addr constant [10 x i8] c"s3 %.10f\0A\00", align 1, !taffo.info !3
@.str.57 = private unnamed_addr constant [10 x i8] c"S4 %.10f\0A\00", align 1, !taffo.info !56
@.str.58 = private unnamed_addr constant [10 x i8] c"Sx %.10f\0A\00", align 1, !taffo.info !62
@.str.59 = private unnamed_addr constant [10 x i8] c"t1 %.10f\0A\00", align 1, !taffo.info !46
@.str.60 = private unnamed_addr constant [10 x i8] c"t2 %.10f\0A\00", align 1, !taffo.info !46
@.str.61 = private unnamed_addr constant [10 x i8] c"t3 %.10f\0A\00", align 1, !taffo.info !46
@.str.63 = private unnamed_addr constant [10 x i8] c"t4 %.10f\0A\00", align 1, !taffo.info !46
@.str.64 = private unnamed_addr constant [10 x i8] c"t5 %.10f\0A\00", align 1, !taffo.info !46
@.str.66 = private unnamed_addr constant [10 x i8] c"t6 %.10f\0A\00", align 1, !taffo.info !46
@.str.67 = private unnamed_addr constant [10 x i8] c"To %.10f\0A\00", align 1, !taffo.info !64
@.str.68 = private unnamed_addr constant [13 x i8] c"taTr %.10f \0A\00", align 1, !taffo.info !46
@.str.69 = private unnamed_addr constant [11 x i8] c"range %d \0A\00", align 1, !taffo.info !52
@.str.71 = private unnamed_addr constant [10 x i8] c"t8 %.10f\0A\00", align 1, !taffo.info !46
@.str.72 = private unnamed_addr constant [10 x i8] c"t9 %.10f\0A\00", align 1, !taffo.info !46
@.str.73 = private unnamed_addr constant [11 x i8] c"t10 %.10f\0A\00", align 1, !taffo.info !46
@.str.74 = private unnamed_addr constant [11 x i8] c"t11 %.10f\0A\00", align 1, !taffo.info !46
@.str.75 = private unnamed_addr constant [11 x i8] c"t12 %.10f\0A\00", align 1, !taffo.info !46
@.str.77 = private unnamed_addr constant [11 x i8] c"t13 %.10f\0A\00", align 1, !taffo.info !46
@.str.78 = private unnamed_addr constant [11 x i8] c"t14 %.10f\0A\00", align 1, !taffo.info !46
@.str.79 = private unnamed_addr constant [11 x i8] c"ToF %.10f\0A\00", align 1, !taffo.info !64
@.str.80 = private unnamed_addr constant [18 x i8] c"pixel Number %d \0A\00", align 1, !taffo.info !62
@.str.81 = private unnamed_addr constant [8 x i8] c"vdd %f\0A\00", align 1, !taffo.info !48
@.str.82 = private unnamed_addr constant [8 x i8] c"ta %f \0A\00", align 1, !taffo.info !46
@.str.83 = private unnamed_addr constant [10 x i8] c"tr %.10f\0A\00", align 1, !taffo.info !46
@.str.86 = private unnamed_addr constant [9 x i8] c"vdd: %f\0A\00", align 1, !taffo.info !48
@.str.87 = private unnamed_addr constant [19 x i8] c"resolutionRAM: %d\0A\00", align 1, !taffo.info !58
@.str.88 = private unnamed_addr constant [18 x i8] c"resolutionEE: %d\0A\00", align 1, !taffo.info !58
@.str.89 = private unnamed_addr constant [29 x i8] c"resolutionCorrection: %.10f\0A\00", align 1, !taffo.info !58
@.str.90 = private unnamed_addr constant [21 x i8] c"kVdd: %d, vdd25: %d\0A\00", align 1, !taffo.info !48
@.str.94 = private unnamed_addr constant [11 x i8] c"getVdd...\0A\00", align 1, !taffo.info !46
@.str.95 = private unnamed_addr constant [10 x i8] c"vdd = %e\0A\00", align 1, !taffo.info !48
@.str.96 = private unnamed_addr constant [17 x i8] c"ptatArt1= %.10f\0A\00", align 1, !taffo.info !46
@.str.97 = private unnamed_addr constant [17 x i8] c"ptatArt2= %.10f\0A\00", align 1, !taffo.info !46
@.str.98 = private unnamed_addr constant [17 x i8] c"ptatArt3= %.10f\0A\00", align 1, !taffo.info !46
@.str.99 = private unnamed_addr constant [13 x i8] c"ptat= %.10f\0A\00", align 1, !taffo.info !46
@.str.100 = private unnamed_addr constant [18 x i8] c"alphaptat= %.10f\0A\00", align 1, !taffo.info !46
@.str.101 = private unnamed_addr constant [16 x i8] c"ptatArt= %.10f\0A\00", align 1, !taffo.info !46
@.str.102 = private unnamed_addr constant [12 x i8] c"vd1= %.10f\0A\00", align 1, !taffo.info !48
@.str.103 = private unnamed_addr constant [15 x i8] c"kvPTAT= %.10f\0A\00", align 1, !taffo.info !48
@.str.104 = private unnamed_addr constant [12 x i8] c"vdd= %.10f\0A\00", align 1, !taffo.info !48
@.str.105 = private unnamed_addr constant [12 x i8] c"ta1= %.10f\0A\00", align 1, !taffo.info !46
@.str.106 = private unnamed_addr constant [12 x i8] c"ta2= %.10f\0A\00", align 1, !taffo.info !46
@.str.107 = private unnamed_addr constant [12 x i8] c"ta3= %.10f\0A\00", align 1, !taffo.info !46
@.str.108 = private unnamed_addr constant [15 x i8] c"taBDiv= %.10f\0A\00", align 1, !taffo.info !48
@.str.109 = private unnamed_addr constant [15 x i8] c"taADiv= %.10f\0A\00", align 1, !taffo.info !48
@.str.119 = private unnamed_addr constant [4 x i8] c"P3\0A\00", align 1, !taffo.info !66
@.str.120 = private unnamed_addr constant [7 x i8] c"%d %d\0A\00", align 1, !taffo.info !68
@.str.121 = private unnamed_addr constant [5 x i8] c"255\0A\00", align 1, !taffo.info !70
@.str.122 = private unnamed_addr constant [10 x i8] c"%d %d %d \00", align 1, !taffo.info !68
@.str.123 = private unnamed_addr constant [2 x i8] c"\0A\00", align 1, !taffo.info !72
@_ZL6eeprom = internal constant [832 x i16] [i16 165, i16 -30305, i16 0, i16 8289, i16 5, i16 800, i16 992, i16 2347, i16 -19931, i16 24966, i16 1177, i16 0, i16 6401, i16 0, i16 0, i16 -16845, i16 17184, i16 -81, i16 257, i16 257, i16 257, i16 -3599, i16 -7951, i16 -16176, i16 273, i16 274, i16 258, i16 -3838, i16 -3597, i16 -7694, i16 -12062, i16 -20271, i16 -30571, i16 14876, i16 -4678, i16 4607, i16 13090, i16 13107, i16 34, i16 -13073, i16 -9029, i16 254, i16 8465, i16 8754, i16 8755, i16 4386, i16 -239, i16 -13074, i16 6118, i16 12203, i16 6486, i16 -24709, i16 30310, i16 -1597, i16 14391, i16 13876, i16 9298, i16 2187, i16 6059, i16 1577, i16 -5120, i16 -26729, i16 -26729, i16 11003, i16 3262, i16 2176, i16 8398, i16 1054, i16 3246, i16 48, i16 7214, i16 1006, i16 3182, i16 2160, i16 9358, i16 -1076, i16 4158, i16 944, i16 8302, i16 -884, i16 513, i16 2944, i16 8192, i16 -5970, i16 6656, i16 -1024, i16 3232, i16 -1074, i16 -1008, i16 -176, i16 6192, i16 -3058, i16 -3954, i16 -2064, i16 4176, i16 -6050, i16 3200, i16 62, i16 -1892, i16 5120, i16 2192, i16 -2018, i16 -2036, i16 6096, i16 2112, i16 1102, i16 76, i16 3984, i16 6128, i16 862, i16 44, i16 5200, i16 3874, i16 1998, i16 972, i16 2128, i16 2098, i16 -994, i16 -2946, i16 5024, i16 994, i16 800, i16 -2, i16 4064, i16 -1952, i16 -64, i16 -3026, i16 32, i16 4110, i16 1152, i16 8318, i16 2030, i16 2238, i16 48, i16 9166, i16 1022, i16 3086, i16 3136, i16 8334, i16 -178, i16 5120, i16 1856, i16 8254, i16 -882, i16 -48, i16 2992, i16 6192, i16 -4066, i16 1136, i16 -1904, i16 4176, i16 -2050, i16 1904, i16 -1056, i16 5216, i16 -3058, i16 -2976, i16 -3984, i16 4130, i16 -3138, i16 5104, i16 -930, i16 -932, i16 6080, i16 1168, i16 -2018, i16 -100, i16 6080, i16 5074, i16 2078, i16 92, i16 4864, i16 6098, i16 782, i16 14, i16 5184, i16 914, i16 2926, i16 -1010, i16 4064, i16 2098, i16 -1970, i16 -2018, i16 5040, i16 3922, i16 -96, i16 -978, i16 5088, i16 -976, i16 -3008, i16 -1056, i16 2944, i16 7200, i16 2144, i16 8272, i16 4014, i16 5296, i16 3008, i16 10112, i16 1038, i16 7152, i16 4160, i16 9280, i16 -98, i16 5248, i16 2880, i16 10224, i16 1118, i16 3040, i16 4016, i16 7184, i16 -2032, i16 3152, i16 64, i16 6208, i16 -2930, i16 1040, i16 912, i16 6240, i16 -2034, i16 -1888, i16 -960, i16 5170, i16 -2080, i16 5232, i16 -864, i16 -850, i16 7136, i16 3330, i16 16, i16 990, i16 4176, i16 5154, i16 2158, i16 142, i16 4048, i16 4290, i16 1934, i16 76, i16 5248, i16 1074, i16 3070, i16 78, i16 3136, i16 3218, i16 -912, i16 -1938, i16 2240, i16 2116, i16 960, i16 158, i16 4160, i16 -798, i16 -1936, i16 -2960, i16 2080, i16 4110, i16 2080, i16 7438, i16 3022, i16 2224, i16 1072, i16 10176, i16 2046, i16 5088, i16 6112, i16 9216, i16 -130, i16 2142, i16 2928, i16 7344, i16 94, i16 -64, i16 3056, i16 9104, i16 -50, i16 112, i16 -912, i16 6160, i16 -2002, i16 2034, i16 928, i16 7218, i16 -2034, i16 32, i16 992, i16 5154, i16 -4080, i16 1072, i16 -2978, i16 -4802, i16 4096, i16 -784, i16 -2976, i16 -1026, i16 3104, i16 2080, i16 1024, i16 -962, i16 2992, i16 160, i16 -96, i16 -2834, i16 3200, i16 -2046, i16 1024, i16 -66, i16 3040, i16 162, i16 -2896, i16 -3010, i16 2128, i16 66, i16 -1104, i16 -1938, i16 3136, i16 82, i16 -2000, i16 -4000, i16 80, i16 6032, i16 2162, i16 7344, i16 1102, i16 2288, i16 2048, i16 7184, i16 14, i16 5086, i16 3200, i16 8320, i16 -162, i16 3136, i16 2944, i16 8192, i16 1054, i16 960, i16 2048, i16 6178, i16 -128, i16 2128, i16 1026, i16 5152, i16 -2962, i16 50, i16 914, i16 4306, i16 -3952, i16 -944, i16 -1950, i16 4194, i16 -4096, i16 3010, i16 -6016, i16 -5906, i16 1152, i16 -1758, i16 -5072, i16 -5058, i16 2080, i16 18, i16 -1888, i16 -3922, i16 1904, i16 114, i16 -2144, i16 -4002, i16 3136, i16 -1038, i16 -1008, i16 -4018, i16 3008, i16 114, i16 -3040, i16 -5026, i16 1152, i16 -926, i16 -2128, i16 -3890, i16 1200, i16 -878, i16 -2928, i16 -4992, i16 50, i16 8098, i16 3058, i16 6192, i16 3022, i16 4224, i16 1056, i16 7152, i16 1920, i16 6096, i16 5024, i16 6272, i16 -1184, i16 6096, i16 2898, i16 5200, i16 96, i16 1922, i16 4864, i16 7138, i16 -3042, i16 1120, i16 -958, i16 4130, i16 -2032, i16 930, i16 866, i16 4112, i16 -2080, i16 -2944, i16 -14, i16 1170, i16 -5088, i16 1970, i16 -5136, i16 -7106, i16 2016, i16 -1870, i16 -6096, i16 -7138, i16 1952, i16 2, i16 -1088, i16 -5986, i16 -1152, i16 2034, i16 -3232, i16 -4994, i16 1136, i16 -1118, i16 784, i16 -5106, i16 -960, i16 -910, i16 -5040, i16 -6082, i16 32, i16 -30, i16 -3216, i16 -4048, i16 34, i16 -3934, i16 -4080, i16 -6992, i16 -1984, i16 976, i16 1042, i16 5120, i16 -960, i16 -1840, i16 50, i16 5104, i16 -1954, i16 1968, i16 2064, i16 5202, i16 -3154, i16 -864, i16 912, i16 5152, i16 -1906, i16 -4080, i16 3026, i16 4162, i16 -4066, i16 -894, i16 -7982, i16 1186, i16 -3072, i16 -62, i16 864, i16 4130, i16 -4048, i16 -3934, i16 -1998, i16 2082, i16 -4112, i16 2018, i16 -2032, i16 -2018, i16 4160, i16 208, i16 -1984, i16 -1026, i16 4208, i16 5058, i16 3088, i16 94, i16 5040, i16 2224, i16 1952, i16 78, i16 6290, i16 66, i16 5088, i16 -914, i16 5152, i16 4226, i16 1088, i16 -1858, i16 7200, i16 6132, i16 3952, i16 2096, i16 7234, i16 2258, i16 3152, i16 1088, i16 6178, i16 -4176, i16 -990, i16 144, i16 -1136, i16 -3024, i16 -46, i16 2992, i16 -1168, i16 -3072, i16 98, i16 2160, i16 -4226, i16 -2976, i16 -128, i16 3120, i16 -2994, i16 -3216, i16 2930, i16 2082, i16 -6050, i16 -2992, i16 -2030, i16 96, i16 -3088, i16 -1182, i16 -126, i16 1106, i16 -5120, i16 -5040, i16 -3950, i16 1058, i16 -5136, i16 -3168, i16 -6128, i16 -9074, i16 2944, i16 -1982, i16 -3120, i16 -5154, i16 3968, i16 -1006, i16 -944, i16 -3970, i16 1920, i16 -894, i16 -1152, i16 -4018, i16 4178, i16 -142, i16 2912, i16 -4034, i16 2128, i16 1138, i16 -976, i16 -4994, i16 4114, i16 3940, i16 896, i16 -1968, i16 5122, i16 1106, i16 -912, i16 -2016, i16 4082, i16 -1168, i16 -2046, i16 -992, i16 -2144, i16 -3072, i16 -1182, i16 864, i16 -4128, i16 -2064, i16 -1006, i16 -1888, i16 -6240, i16 -2016, i16 -2094, i16 2032, i16 -3952, i16 -6110, i16 930, i16 66, i16 -7104, i16 -2080, i16 -1038, i16 -974, i16 -6096, i16 -5134, i16 -3104, i16 962, i16 -6994, i16 -7152, i16 -4030, i16 -4030, i16 -8192, i16 -3214, i16 -7184, i16 -11250, i16 -110, i16 -3086, i16 -5296, i16 -8338, i16 -64, i16 -3054, i16 -3072, i16 -8018, i16 -2144, i16 -974, i16 -4144, i16 -4098, i16 144, i16 -4046, i16 -64, i16 -7090, i16 80, i16 2, i16 -3072, i16 -6098, i16 2112, i16 -2030, i16 -2080, i16 -2096, i16 -864, i16 -2030, i16 -3024, i16 -6096, i16 -32, i16 -1120, i16 3138, i16 4112, i16 3008, i16 -928, i16 3074, i16 4144, i16 80, i16 80, i16 4306, i16 5346, i16 -16, i16 176, i16 5058, i16 6272, i16 2176, i16 -32, i16 5184, i16 5298, i16 -898, i16 176, i16 2224, i16 3216, i16 -864, i16 2034, i16 4098, i16 6274, i16 1120, i16 -896, i16 3138, i16 2194, i16 -16, i16 -3182, i16 -4080, i16 -6146, i16 3986, i16 -1966, i16 -2112, i16 -6130, i16 3106, i16 66, i16 176, i16 -3874, i16 4048, i16 162, i16 1984, i16 -1938, i16 6290, i16 994, i16 2096, i16 -2882, i16 5248, i16 2210, i16 128, i16 -3986, i16 5264, i16 5106, i16 4064, i16 1134, i16 8272, i16 2146, i16 3072, i16 -2962, i16 7152, i16 -6336, i16 930, i16 -2032, i16 -192, i16 -2224, i16 850, i16 832, i16 -2176, i16 -2160, i16 2066, i16 192, i16 -4160, i16 -4912, i16 -14, i16 1186, i16 -2866, i16 -4208, i16 2048, i16 1088, i16 -4944, i16 -2976, i16 16, i16 -944, i16 -1040, i16 -2112, i16 1906, i16 2066, i16 -3072, i16 -3152, i16 1938, i16 -48, i16 -3184, i16 -2144, i16 -32, i16 -7074, i16 7042, i16 4002, i16 928, i16 -2162, i16 7122, i16 4066, i16 3168, i16 -2802, i16 5168, i16 1328, i16 3152, i16 -738, i16 8496, i16 2082, i16 6240, i16 1198, i16 7456, i16 5362, i16 4288, i16 -786, i16 10338, i16 7186, i16 8112, i16 3166, i16 11344, i16 8178, i16 8160, i16 2078, i16 11218, i16 -7280, i16 -3070, i16 -2112, i16 -3216, i16 -8160, i16 -2174, i16 -3264, i16 -5264, i16 -8176, i16 -1952, i16 -3968, i16 -7186, i16 -6016, i16 -158, i16 -4816, i16 -3952, i16 -9088, i16 50, i16 -862, i16 -5984, i16 -4944, i16 -1888, i16 -2928, i16 -5008, i16 -6224, i16 -78, i16 -4048, i16 -3154, i16 -7248, i16 866, i16 -8192, i16 -2272, i16 -6272, i16 -5184, i16 -9314, i16 1840, i16 -7168, i16 -4288, i16 -9426, i16 1888, i16 -3104, i16 -3024, i16 -8082, i16 -1104, i16 -928, i16 816, i16 -6898, i16 5232, i16 -2960, i16 2080, i16 -3970, i16 4226, i16 2226, i16 1136, i16 -4994, i16 6224, i16 2946, i16 2928, i16 -2018, i16 7056, i16 3986, i16 4912, i16 -2082, i16 8976], align 16, !taffo.info !74
@.str.125 = private unnamed_addr constant [10 x i8] c"getTa...\0A\00", align 1, !taffo.info !46
@_ZL9subframe1 = internal constant [834 x i16] [i16 -90, i16 -94, i16 -88, i16 -100, i16 -90, i16 -101, i16 -90, i16 -103, i16 -76, i16 -72, i16 -52, i16 -90, i16 -88, i16 -106, i16 -72, i16 -71, i16 -54, i16 -90, i16 -92, i16 -119, i16 -67, i16 -76, i16 -61, i16 -102, i16 -92, i16 -116, i16 -99, i16 -126, i16 -104, i16 -122, i16 -100, i16 -132, i16 -104, i16 -100, i16 -107, i16 -103, i16 -103, i16 -105, i16 -110, i16 -100, i16 -87, i16 -76, i16 -73, i16 -83, i16 -103, i16 -110, i16 -82, i16 -69, i16 -68, i16 -91, i16 -113, i16 -114, i16 -75, i16 -79, i16 -82, i16 -95, i16 -105, i16 -117, i16 -116, i16 -121, i16 -115, i16 -124, i16 -119, i16 -131, i16 -92, i16 -98, i16 -87, i16 -103, i16 -90, i16 -102, i16 -88, i16 -103, i16 -71, i16 -62, i16 -47, i16 -90, i16 -89, i16 -102, i16 -55, i16 -68, i16 -55, i16 -101, i16 -93, i16 -109, i16 -55, i16 -71, i16 -65, i16 -110, i16 -94, i16 -122, i16 -100, i16 -125, i16 -102, i16 -125, i16 -100, i16 -132, i16 -103, i16 -103, i16 -109, i16 -104, i16 -104, i16 -107, i16 -112, i16 -102, i16 -78, i16 -66, i16 -71, i16 -83, i16 -100, i16 -105, i16 -69, i16 -63, i16 -78, i16 -98, i16 -112, i16 -105, i16 -62, i16 -72, i16 -97, i16 -108, i16 -108, i16 -122, i16 -119, i16 -121, i16 -115, i16 -127, i16 -119, i16 -128, i16 -87, i16 -99, i16 -86, i16 -100, i16 -86, i16 -100, i16 -89, i16 -103, i16 -68, i16 -57, i16 -44, i16 -85, i16 -88, i16 -91, i16 -44, i16 -65, i16 -60, i16 -104, i16 -85, i16 -87, i16 -47, i16 -71, i16 -81, i16 -120, i16 -95, i16 -120, i16 -100, i16 -124, i16 -102, i16 -125, i16 -100, i16 -134, i16 -102, i16 -102, i16 -106, i16 -99, i16 -101, i16 -106, i16 -109, i16 -103, i16 -76, i16 -67, i16 -67, i16 -75, i16 -100, i16 -94, i16 -63, i16 -62, i16 -81, i16 -105, i16 -96, i16 -80, i16 -62, i16 -71, i16 -109, i16 -117, i16 -111, i16 -123, i16 -121, i16 -121, i16 -116, i16 -126, i16 -121, i16 -132, i16 -89, i16 -91, i16 -81, i16 -82, i16 -67, i16 -97, i16 -90, i16 -105, i16 -69, i16 -56, i16 -37, i16 -72, i16 -84, i16 -76, i16 -45, i16 -65, i16 -66, i16 -105, i16 -64, i16 -72, i16 -52, i16 -79, i16 -91, i16 -122, i16 -97, i16 -122, i16 -101, i16 -126, i16 -102, i16 -124, i16 -101, i16 -136, i16 -104, i16 -102, i16 -100, i16 -81, i16 -78, i16 -94, i16 -114, i16 -106, i16 -82, i16 -66, i16 -61, i16 -63, i16 -94, i16 -83, i16 -66, i16 -64, i16 -92, i16 -108, i16 -73, i16 -69, i16 -69, i16 -83, i16 -117, i16 -121, i16 -112, i16 -125, i16 -123, i16 -126, i16 -119, i16 -128, i16 -125, i16 -133, i16 -88, i16 -94, i16 -82, i16 -82, i16 -49, i16 -70, i16 -92, i16 -106, i16 -71, i16 -60, i16 -38, i16 -64, i16 -73, i16 -66, i16 -43, i16 -64, i16 -73, i16 -96, i16 -49, i16 -69, i16 -55, i16 -95, i16 -100, i16 -125, i16 -101, i16 -122, i16 -107, i16 -132, i16 -102, i16 -128, i16 -102, i16 -136, i16 -105, i16 -108, i16 -108, i16 -94, i16 -65, i16 -68, i16 -115, i16 -106, i16 -87, i16 -72, i16 -64, i16 -63, i16 -80, i16 -71, i16 -67, i16 -63, i16 -92, i16 -99, i16 -73, i16 -68, i16 -82, i16 -105, i16 -124, i16 -125, i16 -118, i16 -128, i16 -128, i16 -130, i16 -119, i16 -130, i16 -125, i16 -133, i16 -87, i16 -97, i16 -87, i16 -94, i16 -44, i16 -53, i16 -71, i16 -102, i16 -73, i16 -60, i16 -41, i16 -59, i16 -45, i16 -57, i16 -42, i16 -68, i16 -68, i16 -76, i16 -48, i16 -70, i16 -72, i16 -114, i16 -101, i16 -127, i16 -99, i16 -122, i16 -103, i16 -128, i16 -106, i16 -126, i16 -105, i16 -138, i16 -106, i16 -106, i16 -112, i16 -101, i16 -66, i16 -63, i16 -88, i16 -96, i16 -89, i16 -72, i16 -63, i16 -61, i16 -58, i16 -63, i16 -67, i16 -64, i16 -72, i16 -78, i16 -74, i16 -72, i16 -100, i16 -119, i16 -126, i16 -125, i16 -115, i16 -128, i16 -125, i16 -127, i16 -122, i16 -130, i16 -127, i16 -135, i16 -96, i16 -98, i16 -90, i16 -102, i16 -72, i16 -59, i16 -46, i16 -77, i16 -60, i16 -55, i16 -42, i16 -61, i16 -46, i16 -58, i16 -45, i16 -66, i16 -47, i16 -67, i16 -52, i16 -78, i16 -88, i16 -126, i16 -103, i16 -126, i16 -99, i16 -122, i16 -104, i16 -129, i16 -104, i16 -123, i16 -101, i16 -134, i16 -115, i16 -113, i16 -119, i16 -111, i16 -96, i16 -79, i16 -72, i16 -63, i16 -64, i16 -64, i16 -68, i16 -62, i16 -65, i16 -65, i16 -72, i16 -68, i16 -67, i16 -73, i16 -79, i16 -80, i16 -113, i16 -123, i16 -128, i16 -123, i16 -117, i16 -124, i16 -126, i16 -124, i16 -109, i16 -117, i16 -123, i16 -130, i16 -98, i16 -100, i16 -98, i16 -106, i16 -88, i16 -82, i16 -45, i16 -57, i16 -46, i16 -57, i16 -39, i16 -58, i16 -41, i16 -58, i16 -47, i16 -65, i16 -46, i16 -67, i16 -56, i16 -89, i16 -97, i16 -117, i16 -104, i16 -124, i16 -98, i16 -116, i16 -79, i16 -95, i16 -63, i16 -86, i16 -82, i16 -124, i16 -118, i16 -116, i16 -128, i16 -114, i16 -109, i16 -105, i16 -75, i16 -64, i16 -66, i16 -66, i16 -66, i16 -58, i16 -61, i16 -65, i16 -74, i16 -68, i16 -66, i16 -73, i16 -84, i16 -88, i16 -118, i16 -128, i16 -128, i16 -126, i16 -110, i16 -113, i16 -92, i16 -89, i16 -79, i16 -89, i16 -114, i16 -126, i16 -94, i16 -101, i16 -97, i16 -109, i16 -90, i16 -94, i16 -50, i16 -62, i16 -41, i16 -51, i16 -37, i16 -53, i16 -37, i16 -54, i16 -44, i16 -63, i16 -46, i16 -68, i16 -57, i16 -90, i16 -96, i16 -118, i16 -101, i16 -123, i16 -71, i16 -81, i16 -62, i16 -84, i16 -80, i16 -112, i16 -100, i16 -135, i16 -118, i16 -117, i16 -128, i16 -115, i16 -113, i16 -110, i16 -77, i16 -68, i16 -62, i16 -63, i16 -67, i16 -60, i16 -58, i16 -63, i16 -72, i16 -68, i16 -70, i16 -75, i16 -85, i16 -87, i16 -117, i16 -125, i16 -128, i16 -117, i16 -78, i16 -87, i16 -83, i16 -89, i16 -111, i16 -123, i16 -129, i16 -136, i16 -99, i16 -104, i16 -98, i16 -109, i16 -97, i16 -101, i16 -57, i16 -62, i16 -45, i16 -52, i16 -39, i16 -54, i16 -39, i16 -51, i16 -44, i16 -65, i16 -47, i16 -68, i16 -57, i16 -79, i16 -92, i16 -117, i16 -81, i16 -87, i16 -57, i16 -75, i16 -70, i16 -113, i16 -100, i16 -124, i16 -107, i16 -139, i16 -125, i16 -120, i16 -131, i16 -120, i16 -120, i16 -116, i16 -88, i16 -71, i16 -69, i16 -65, i16 -68, i16 -60, i16 -64, i16 -63, i16 -74, i16 -68, i16 -69, i16 -76, i16 -83, i16 -76, i16 -100, i16 -111, i16 -94, i16 -88, i16 -74, i16 -85, i16 -116, i16 -118, i16 -124, i16 -133, i16 -134, i16 -140, i16 -107, i16 -106, i16 -103, i16 -113, i16 -97, i16 -101, i16 -61, i16 -68, i16 -48, i16 -54, i16 -41, i16 -55, i16 -40, i16 -54, i16 -44, i16 -65, i16 -51, i16 -67, i16 -53, i16 -75, i16 -57, i16 -75, i16 -63, i16 -83, i16 -62, i16 -95, i16 -98, i16 -127, i16 -106, i16 -125, i16 -111, i16 -139, i16 -132, i16 -125, i16 -138, i16 -123, i16 -120, i16 -119, i16 -94, i16 -77, i16 -74, i16 -71, i16 -74, i16 -63, i16 -67, i16 -66, i16 -79, i16 -73, i16 -75, i16 -82, i16 -86, i16 -80, i16 -79, i16 -85, i16 -93, i16 -87, i16 -96, i16 -115, i16 -131, i16 -132, i16 -130, i16 -140, i16 -138, i16 -142, i16 -106, i16 -107, i16 -104, i16 -113, i16 -101, i16 -103, i16 -67, i16 -74, i16 -53, i16 -61, i16 -48, i16 -61, i16 -45, i16 -58, i16 -55, i16 -71, i16 -55, i16 -71, i16 -57, i16 -77, i16 -58, i16 -77, i16 -67, i16 -89, i16 -94, i16 -119, i16 -111, i16 -130, i16 -112, i16 -128, i16 -116, i16 -137, i16 -143, i16 -136, i16 -147, i16 -137, i16 -136, i16 -126, i16 -109, i16 -95, i16 -90, i16 -88, i16 -90, i16 -82, i16 -82, i16 -85, i16 -97, i16 -90, i16 -91, i16 -93, i16 -99, i16 -94, i16 -92, i16 -99, i16 -110, i16 -108, i16 -132, i16 -142, i16 -149, i16 -145, i16 -143, i16 -148, i16 -150, i16 -152, i16 20276, i16 6436, i16 32767, i16 6436, i16 32767, i16 6434, i16 32767, i16 6434, i16 -90, i16 -12788, i16 6240, i16 -10474, i16 -8, i16 8, i16 -1, i16 -2, i16 6161, i16 973, i16 608, i16 32767, i16 6161, i16 973, i16 608, i16 32767, i16 1, i16 1, i16 1, i16 1, i16 1, i16 1, i16 1, i16 1, i16 1609, i16 32767, i16 6436, i16 32767, i16 6436, i16 32767, i16 6434, i16 32767, i16 -88, i16 -2799, i16 -12384, i16 -10410, i16 6, i16 -3, i16 -4, i16 -1, i16 230, i16 95, i16 9921, i16 55, i16 230, i16 95, i16 9921, i16 55, i16 1, i16 1, i16 1, i16 1, i16 1, i16 1, i16 1, i16 1, i16 6401, i16 0], align 16, !taffo.info !76
@.str.127 = private unnamed_addr constant [9 x i8] c"ta = %e\0A\00", align 1, !taffo.info !46
@.str.129 = private unnamed_addr constant [16 x i8] c"TaMain = %.10f\0A\00", align 1, !taffo.info !60
@.str.130 = private unnamed_addr constant [16 x i8] c"TrMain = %.10f\0A\00", align 1, !taffo.info !52
@_ZL9subframe2 = internal constant [834 x i16] [i16 -90, i16 -92, i16 -88, i16 -97, i16 -90, i16 -96, i16 -90, i16 -100, i16 -76, i16 -69, i16 -52, i16 -82, i16 -88, i16 -101, i16 -72, i16 -68, i16 -54, i16 -80, i16 -92, i16 -112, i16 -67, i16 -74, i16 -61, i16 -93, i16 -92, i16 -109, i16 -99, i16 -117, i16 -104, i16 -116, i16 -100, i16 -128, i16 -97, i16 -100, i16 -104, i16 -103, i16 -98, i16 -105, i16 -106, i16 -100, i16 -83, i16 -76, i16 -66, i16 -83, i16 -97, i16 -110, i16 -81, i16 -69, i16 -59, i16 -91, i16 -108, i16 -114, i16 -70, i16 -79, i16 -75, i16 -95, i16 -101, i16 -117, i16 -113, i16 -121, i16 -109, i16 -124, i16 -113, i16 -131, i16 -92, i16 -93, i16 -87, i16 -98, i16 -90, i16 -96, i16 -88, i16 -98, i16 -71, i16 -57, i16 -47, i16 -81, i16 -89, i16 -98, i16 -55, i16 -61, i16 -55, i16 -91, i16 -93, i16 -107, i16 -55, i16 -65, i16 -65, i16 -103, i16 -94, i16 -114, i16 -100, i16 -120, i16 -102, i16 -120, i16 -100, i16 -127, i16 -98, i16 -103, i16 -105, i16 -104, i16 -99, i16 -107, i16 -105, i16 -102, i16 -78, i16 -66, i16 -65, i16 -83, i16 -96, i16 -105, i16 -63, i16 -63, i16 -67, i16 -98, i16 -109, i16 -105, i16 -57, i16 -72, i16 -88, i16 -108, i16 -101, i16 -122, i16 -114, i16 -121, i16 -109, i16 -127, i16 -116, i16 -128, i16 -87, i16 -92, i16 -86, i16 -96, i16 -86, i16 -95, i16 -89, i16 -98, i16 -68, i16 -55, i16 -44, i16 -74, i16 -88, i16 -90, i16 -44, i16 -58, i16 -60, i16 -95, i16 -85, i16 -82, i16 -47, i16 -63, i16 -81, i16 -113, i16 -95, i16 -113, i16 -100, i16 -119, i16 -102, i16 -117, i16 -100, i16 -126, i16 -96, i16 -102, i16 -101, i16 -99, i16 -98, i16 -106, i16 -104, i16 -103, i16 -74, i16 -67, i16 -59, i16 -75, i16 -95, i16 -94, i16 -58, i16 -62, i16 -71, i16 -105, i16 -92, i16 -80, i16 -54, i16 -71, i16 -102, i16 -117, i16 -104, i16 -123, i16 -115, i16 -121, i16 -110, i16 -126, i16 -116, i16 -132, i16 -89, i16 -90, i16 -81, i16 -79, i16 -67, i16 -88, i16 -90, i16 -100, i16 -69, i16 -53, i16 -37, i16 -62, i16 -84, i16 -73, i16 -45, i16 -58, i16 -66, i16 -98, i16 -64, i16 -66, i16 -52, i16 -70, i16 -91, i16 -116, i16 -97, i16 -115, i16 -101, i16 -121, i16 -102, i16 -118, i16 -101, i16 -128, i16 -98, i16 -102, i16 -99, i16 -81, i16 -71, i16 -94, i16 -109, i16 -106, i16 -80, i16 -66, i16 -53, i16 -63, i16 -90, i16 -83, i16 -60, i16 -64, i16 -80, i16 -108, i16 -70, i16 -69, i16 -61, i16 -83, i16 -110, i16 -121, i16 -107, i16 -125, i16 -117, i16 -126, i16 -110, i16 -128, i16 -118, i16 -133, i16 -88, i16 -89, i16 -82, i16 -81, i16 -49, i16 -60, i16 -92, i16 -101, i16 -71, i16 -56, i16 -38, i16 -56, i16 -73, i16 -63, i16 -43, i16 -58, i16 -73, i16 -91, i16 -49, i16 -63, i16 -55, i16 -88, i16 -100, i16 -120, i16 -101, i16 -115, i16 -107, i16 -124, i16 -102, i16 -120, i16 -102, i16 -128, i16 -99, i16 -108, i16 -102, i16 -94, i16 -60, i16 -68, i16 -110, i16 -106, i16 -82, i16 -72, i16 -59, i16 -63, i16 -76, i16 -71, i16 -61, i16 -63, i16 -85, i16 -99, i16 -65, i16 -68, i16 -72, i16 -105, i16 -119, i16 -125, i16 -111, i16 -128, i16 -121, i16 -130, i16 -111, i16 -130, i16 -119, i16 -133, i16 -87, i16 -90, i16 -87, i16 -89, i16 -44, i16 -49, i16 -71, i16 -94, i16 -73, i16 -58, i16 -41, i16 -53, i16 -45, i16 -51, i16 -42, i16 -59, i16 -68, i16 -70, i16 -48, i16 -65, i16 -72, i16 -102, i16 -101, i16 -120, i16 -99, i16 -116, i16 -103, i16 -121, i16 -106, i16 -118, i16 -105, i16 -129, i16 -100, i16 -106, i16 -106, i16 -101, i16 -66, i16 -63, i16 -80, i16 -96, i16 -84, i16 -72, i16 -59, i16 -61, i16 -52, i16 -63, i16 -61, i16 -64, i16 -67, i16 -78, i16 -66, i16 -72, i16 -90, i16 -119, i16 -119, i16 -125, i16 -109, i16 -128, i16 -118, i16 -127, i16 -113, i16 -130, i16 -122, i16 -135, i16 -96, i16 -93, i16 -90, i16 -97, i16 -72, i16 -53, i16 -46, i16 -66, i16 -60, i16 -50, i16 -42, i16 -54, i16 -46, i16 -51, i16 -45, i16 -59, i16 -47, i16 -60, i16 -52, i16 -70, i16 -88, i16 -117, i16 -103, i16 -119, i16 -99, i16 -115, i16 -104, i16 -123, i16 -104, i16 -116, i16 -101, i16 -127, i16 -109, i16 -113, i16 -112, i16 -111, i16 -92, i16 -79, i16 -65, i16 -63, i16 -54, i16 -64, i16 -62, i16 -62, i16 -58, i16 -65, i16 -66, i16 -68, i16 -58, i16 -73, i16 -72, i16 -80, i16 -103, i16 -123, i16 -121, i16 -123, i16 -109, i16 -124, i16 -117, i16 -124, i16 -104, i16 -117, i16 -114, i16 -130, i16 -98, i16 -94, i16 -98, i16 -100, i16 -88, i16 -79, i16 -45, i16 -51, i16 -46, i16 -49, i16 -39, i16 -50, i16 -41, i16 -49, i16 -47, i16 -59, i16 -46, i16 -59, i16 -56, i16 -76, i16 -97, i16 -109, i16 -104, i16 -116, i16 -98, i16 -109, i16 -79, i16 -86, i16 -63, i16 -78, i16 -82, i16 -118, i16 -112, i16 -116, i16 -121, i16 -114, i16 -102, i16 -105, i16 -69, i16 -64, i16 -59, i16 -66, i16 -59, i16 -58, i16 -54, i16 -65, i16 -66, i16 -68, i16 -58, i16 -73, i16 -76, i16 -88, i16 -110, i16 -128, i16 -123, i16 -126, i16 -105, i16 -113, i16 -83, i16 -89, i16 -71, i16 -89, i16 -106, i16 -126, i16 -94, i16 -95, i16 -97, i16 -102, i16 -90, i16 -90, i16 -50, i16 -55, i16 -41, i16 -46, i16 -37, i16 -47, i16 -37, i16 -45, i16 -44, i16 -58, i16 -46, i16 -59, i16 -57, i16 -80, i16 -96, i16 -108, i16 -101, i16 -116, i16 -71, i16 -74, i16 -62, i16 -79, i16 -80, i16 -104, i16 -100, i16 -127, i16 -114, i16 -117, i16 -122, i16 -115, i16 -108, i16 -110, i16 -75, i16 -68, i16 -57, i16 -63, i16 -60, i16 -60, i16 -49, i16 -63, i16 -62, i16 -68, i16 -60, i16 -75, i16 -77, i16 -87, i16 -106, i16 -125, i16 -121, i16 -117, i16 -73, i16 -87, i16 -77, i16 -89, i16 -103, i16 -123, i16 -121, i16 -136, i16 -99, i16 -97, i16 -98, i16 -103, i16 -97, i16 -94, i16 -57, i16 -57, i16 -45, i16 -45, i16 -39, i16 -45, i16 -39, i16 -45, i16 -44, i16 -58, i16 -47, i16 -61, i16 -57, i16 -69, i16 -92, i16 -111, i16 -81, i16 -82, i16 -57, i16 -68, i16 -70, i16 -102, i16 -100, i16 -114, i16 -107, i16 -131, i16 -118, i16 -120, i16 -126, i16 -120, i16 -114, i16 -116, i16 -80, i16 -71, i16 -60, i16 -65, i16 -63, i16 -60, i16 -55, i16 -63, i16 -67, i16 -68, i16 -61, i16 -76, i16 -75, i16 -76, i16 -93, i16 -111, i16 -87, i16 -88, i16 -66, i16 -85, i16 -107, i16 -118, i16 -115, i16 -133, i16 -128, i16 -140, i16 -107, i16 -100, i16 -103, i16 -106, i16 -97, i16 -95, i16 -61, i16 -62, i16 -48, i16 -49, i16 -41, i16 -49, i16 -40, i16 -46, i16 -44, i16 -56, i16 -51, i16 -61, i16 -53, i16 -66, i16 -57, i16 -67, i16 -63, i16 -73, i16 -62, i16 -85, i16 -98, i16 -119, i16 -106, i16 -119, i16 -111, i16 -133, i16 -126, i16 -125, i16 -130, i16 -123, i16 -115, i16 -119, i16 -86, i16 -77, i16 -66, i16 -71, i16 -68, i16 -63, i16 -57, i16 -66, i16 -71, i16 -73, i16 -67, i16 -82, i16 -80, i16 -80, i16 -69, i16 -85, i16 -87, i16 -87, i16 -85, i16 -115, i16 -124, i16 -132, i16 -119, i16 -140, i16 -131, i16 -142, i16 -106, i16 -101, i16 -104, i16 -107, i16 -101, i16 -97, i16 -67, i16 -66, i16 -53, i16 -54, i16 -48, i16 -53, i16 -45, i16 -48, i16 -55, i16 -63, i16 -55, i16 -64, i16 -57, i16 -69, i16 -58, i16 -71, i16 -67, i16 -79, i16 -94, i16 -111, i16 -111, i16 -123, i16 -112, i16 -120, i16 -116, i16 -130, i16 -135, i16 -136, i16 -139, i16 -137, i16 -130, i16 -126, i16 -103, i16 -95, i16 -84, i16 -88, i16 -84, i16 -82, i16 -75, i16 -85, i16 -93, i16 -90, i16 -82, i16 -93, i16 -92, i16 -94, i16 -84, i16 -99, i16 -100, i16 -108, i16 -123, i16 -142, i16 -141, i16 -145, i16 -134, i16 -148, i16 -142, i16 -152, i16 20276, i16 6437, i16 32767, i16 6437, i16 32767, i16 6436, i16 32767, i16 6436, i16 -90, i16 -12790, i16 6240, i16 -10474, i16 -8, i16 8, i16 -1, i16 -1, i16 6161, i16 974, i16 608, i16 32767, i16 6161, i16 974, i16 608, i16 32767, i16 1, i16 1, i16 1, i16 1, i16 1, i16 1, i16 1, i16 1, i16 1609, i16 32767, i16 6437, i16 32767, i16 6437, i16 32767, i16 6436, i16 32767, i16 -84, i16 -2799, i16 -12385, i16 -10410, i16 7, i16 -3, i16 -4, i16 -1, i16 236, i16 95, i16 9927, i16 55, i16 236, i16 95, i16 9927, i16 55, i16 1, i16 1, i16 1, i16 1, i16 1, i16 1, i16 1, i16 1, i16 6401, i16 1], align 16, !taffo.info !78
@.str.132 = private unnamed_addr constant [15 x i8] c"thermalmap.ppm\00", align 1, !taffo.info !46
@.str.133 = private unnamed_addr constant [2 x i8] c"w\00", align 1, !taffo.info !80
@stderr = external dso_local global %struct._IO_FILE*, align 8
@.str.134 = private unnamed_addr constant [19 x i8] c"min = %d max = %d\0A\00", align 1, !taffo.info !62
@llvm.global.annotations = appending global [23 x { i8*, i8*, i8*, i32, i8* }] [{ i8*, i8*, i8*, i32, i8* } { i8* bitcast (i16* @params_kVdd to i8*), i8* getelementptr inbounds ([37 x i8], [37 x i8]* @.str, i32 0, i32 0), i8* getelementptr inbounds ([17 x i8], [17 x i8]* @.str.1, i32 0, i32 0), i32 23, i8* null }, { i8*, i8*, i8*, i32, i8* } { i8* bitcast (i16* @params_vdd25 to i8*), i8* getelementptr inbounds ([37 x i8], [37 x i8]* @.str, i32 0, i32 0), i8* getelementptr inbounds ([17 x i8], [17 x i8]* @.str.1, i32 0, i32 0), i32 24, i8* null }, { i8*, i8*, i8*, i32, i8* } { i8* bitcast (float* @params_KvPTAT to i8*), i8* getelementptr inbounds ([37 x i8], [37 x i8]* @.str.2, i32 0, i32 0), i8* getelementptr inbounds ([17 x i8], [17 x i8]* @.str.1, i32 0, i32 0), i32 25, i8* null }, { i8*, i8*, i8*, i32, i8* } { i8* bitcast (float* @params_KtPTAT to i8*), i8* getelementptr inbounds ([30 x i8], [30 x i8]* @.str.3, i32 0, i32 0), i8* getelementptr inbounds ([17 x i8], [17 x i8]* @.str.1, i32 0, i32 0), i32 26, i8* null }, { i8*, i8*, i8*, i32, i8* } { i8* bitcast (i16* @params_vPTAT25 to i8*), i8* getelementptr inbounds ([37 x i8], [37 x i8]* @.str, i32 0, i32 0), i8* getelementptr inbounds ([17 x i8], [17 x i8]* @.str.1, i32 0, i32 0), i32 27, i8* null }, { i8*, i8*, i8*, i32, i8* } { i8* bitcast (float* @params_alphaPTAT to i8*), i8* getelementptr inbounds ([30 x i8], [30 x i8]* @.str.4, i32 0, i32 0), i8* getelementptr inbounds ([17 x i8], [17 x i8]* @.str.1, i32 0, i32 0), i32 28, i8* null }, { i8*, i8*, i8*, i32, i8* } { i8* bitcast (i16* @params_gainEE to i8*), i8* getelementptr inbounds ([37 x i8], [37 x i8]* @.str, i32 0, i32 0), i8* getelementptr inbounds ([17 x i8], [17 x i8]* @.str.1, i32 0, i32 0), i32 29, i8* null }, { i8*, i8*, i8*, i32, i8* } { i8* bitcast (float* @params_tgc to i8*), i8* getelementptr inbounds ([27 x i8], [27 x i8]* @.str.5, i32 0, i32 0), i8* getelementptr inbounds ([17 x i8], [17 x i8]* @.str.1, i32 0, i32 0), i32 30, i8* null }, { i8*, i8*, i8*, i32, i8* } { i8* bitcast (float* @params_cpKv to i8*), i8* getelementptr inbounds ([34 x i8], [34 x i8]* @.str.6, i32 0, i32 0), i8* getelementptr inbounds ([17 x i8], [17 x i8]* @.str.1, i32 0, i32 0), i32 31, i8* null }, { i8*, i8*, i8*, i32, i8* } { i8* bitcast (float* @params_cpKta to i8*), i8* getelementptr inbounds ([28 x i8], [28 x i8]* @.str.7, i32 0, i32 0), i8* getelementptr inbounds ([17 x i8], [17 x i8]* @.str.1, i32 0, i32 0), i32 32, i8* null }, { i8*, i8*, i8*, i32, i8* } { i8* bitcast (i32* @params_resolutionEE to i8*), i8* getelementptr inbounds ([30 x i8], [30 x i8]* @.str.8, i32 0, i32 0), i8* getelementptr inbounds ([17 x i8], [17 x i8]* @.str.1, i32 0, i32 0), i32 33, i8* null }, { i8*, i8*, i8*, i32, i8* } { i8* @params_calibrationModeEE, i8* getelementptr inbounds ([30 x i8], [30 x i8]* @.str.8, i32 0, i32 0), i8* getelementptr inbounds ([17 x i8], [17 x i8]* @.str.1, i32 0, i32 0), i32 34, i8* null }, { i8*, i8*, i8*, i32, i8* } { i8* bitcast (float* @params_KsTa to i8*), i8* getelementptr inbounds ([26 x i8], [26 x i8]* @.str.9, i32 0, i32 0), i8* getelementptr inbounds ([17 x i8], [17 x i8]* @.str.1, i32 0, i32 0), i32 35, i8* null }, { i8*, i8*, i8*, i32, i8* } { i8* bitcast ([4 x float]* @params_ksTo to i8*), i8* getelementptr inbounds ([25 x i8], [25 x i8]* @.str.10, i32 0, i32 0), i8* getelementptr inbounds ([17 x i8], [17 x i8]* @.str.1, i32 0, i32 0), i32 36, i8* null }, { i8*, i8*, i8*, i32, i8* } { i8* bitcast ([4 x i16]* @params_ct to i8*), i8* getelementptr inbounds ([37 x i8], [37 x i8]* @.str, i32 0, i32 0), i8* getelementptr inbounds ([17 x i8], [17 x i8]* @.str.1, i32 0, i32 0), i32 37, i8* null }, { i8*, i8*, i8*, i32, i8* } { i8* bitcast ([768 x i16]* @params_offset to i8*), i8* getelementptr inbounds ([37 x i8], [37 x i8]* @.str, i32 0, i32 0), i8* getelementptr inbounds ([17 x i8], [17 x i8]* @.str.1, i32 0, i32 0), i32 39, i8* null }, { i8*, i8*, i8*, i32, i8* } { i8* bitcast ([768 x float]* @params_kta to i8*), i8* getelementptr inbounds ([35 x i8], [35 x i8]* @.str.11, i32 0, i32 0), i8* getelementptr inbounds ([17 x i8], [17 x i8]* @.str.1, i32 0, i32 0), i32 40, i8* null }, { i8*, i8*, i8*, i32, i8* } { i8* bitcast ([768 x float]* @params_kv to i8*), i8* getelementptr inbounds ([26 x i8], [26 x i8]* @.str.12, i32 0, i32 0), i8* getelementptr inbounds ([17 x i8], [17 x i8]* @.str.1, i32 0, i32 0), i32 41, i8* null }, { i8*, i8*, i8*, i32, i8* } { i8* bitcast ([2 x float]* @params_cpAlpha to i8*), i8* getelementptr inbounds ([32 x i8], [32 x i8]* @.str.13, i32 0, i32 0), i8* getelementptr inbounds ([17 x i8], [17 x i8]* @.str.1, i32 0, i32 0), i32 42, i8* null }, { i8*, i8*, i8*, i32, i8* } { i8* bitcast ([2 x i16]* @params_cpOffset to i8*), i8* getelementptr inbounds ([37 x i8], [37 x i8]* @.str, i32 0, i32 0), i8* getelementptr inbounds ([17 x i8], [17 x i8]* @.str.1, i32 0, i32 0), i32 43, i8* null }, { i8*, i8*, i8*, i32, i8* } { i8* bitcast ([3 x float]* @params_ilChessC to i8*), i8* getelementptr inbounds ([9 x i8], [9 x i8]* @.str.14, i32 0, i32 0), i8* getelementptr inbounds ([17 x i8], [17 x i8]* @.str.1, i32 0, i32 0), i32 44, i8* null }, { i8*, i8*, i8*, i32, i8* } { i8* bitcast ([5 x i16]* @params_brokenPixels to i8*), i8* getelementptr inbounds ([32 x i8], [32 x i8]* @.str.15, i32 0, i32 0), i8* getelementptr inbounds ([17 x i8], [17 x i8]* @.str.1, i32 0, i32 0), i32 45, i8* null }, { i8*, i8*, i8*, i32, i8* } { i8* bitcast ([5 x i16]* @params_outlierPixels to i8*), i8* getelementptr inbounds ([32 x i8], [32 x i8]* @.str.15, i32 0, i32 0), i8* getelementptr inbounds ([17 x i8], [17 x i8]* @.str.1, i32 0, i32 0), i32 46, i8* null }], section "llvm.metadata"
@params_KvPTAT.fixp = global i32 0, align 4, !taffo.info !7
@params_KtPTAT.fixp = global i32 0, align 4, !taffo.info !10
@params_alphaPTAT.fixp = global i32 0, align 4, !taffo.info !13
@params_tgc.fixp = global i32 0, align 4, !taffo.info !16
@params_cpKv.fixp = global i32 0, align 4, !taffo.info !19
@params_cpKta.fixp = global i32 0, align 4, !taffo.info !21
@params_KsTa.fixp = global i32 0, align 4, !taffo.info !28
@params_ksTo.fixp = global [4 x i32] zeroinitializer, align 16, !taffo.info !30
@params_kta.fixp = global [768 x i32] zeroinitializer, align 16, !taffo.info !35
@params_kv.fixp = global [768 x i32] zeroinitializer, align 16, !taffo.info !38
@params_cpAlpha.fixp = global [2 x i32] zeroinitializer, align 4, !taffo.info !40
@params_ilChessC.fixp = global [3 x i32] zeroinitializer, align 4, !taffo.info !42

; Function Attrs: noinline uwtable mustprogress
define dso_local i32 @_Z15MLX90640_DumpEEhPt(i8 zeroext %0, i16* %1) #0 !taffo.initweight !84 !taffo.funinfo !85 {
  %3 = call i32 @_Z16MLX90640_I2CReadhjjPt(i8 zeroext %0, i32 9216, i32 832, i16* %1), !taffo.constinfo !86
  ret i32 %3
}

; Function Attrs: noinline nounwind uwtable mustprogress
define dso_local i32 @_Z16MLX90640_I2CReadhjjPt(i8 zeroext %0, i32 %1, i32 %2, i16* %3) #1 !taffo.initweight !87 !taffo.funinfo !88 {
  call void @abort() #6, !taffo.constinfo !89
  unreachable
}

; Function Attrs: noinline uwtable mustprogress
define dso_local i32 @_Z21MLX90640_GetFrameDatahPt(i8 zeroext %0, i16* %1) #0 !taffo.initweight !84 !taffo.funinfo !85 {
  %3 = alloca i16, align 2
  %4 = alloca i16, align 2
  br label %5

5:                                                ; preds = %12, %2
  %.02 = phi i16 [ 0, %2 ], [ %16, %12 ]
  %6 = zext i16 %.02 to i32
  %7 = icmp eq i32 %6, 0
  br i1 %7, label %8, label %17

8:                                                ; preds = %5
  %9 = call i32 @_Z16MLX90640_I2CReadhjjPt(i8 zeroext %0, i32 32768, i32 1, i16* %4), !taffo.constinfo !86
  %10 = icmp ne i32 %9, 0
  br i1 %10, label %11, label %12

11:                                               ; preds = %8
  br label %75

12:                                               ; preds = %8
  %13 = load i16, i16* %4, align 2
  %14 = zext i16 %13 to i32
  %15 = and i32 %14, 8, !taffo.constinfo !90
  %16 = trunc i32 %15 to i16
  br label %5, !llvm.loop !91

17:                                               ; preds = %5
  br label %18

18:                                               ; preds = %42, %17
  %.1 = phi i16 [ %.02, %17 ], [ %46, %42 ]
  %.01 = phi i8 [ 0, %17 ], [ %49, %42 ]
  %19 = zext i16 %.1 to i32
  %20 = icmp ne i32 %19, 0
  br i1 %20, label %21, label %24

21:                                               ; preds = %18
  %22 = zext i8 %.01 to i32
  %23 = icmp slt i32 %22, 5
  br label %24

24:                                               ; preds = %21, %18
  %25 = phi i1 [ false, %18 ], [ %23, %21 ]
  br i1 %25, label %26, label %50

26:                                               ; preds = %24
  %27 = load i16, i16* %4, align 2
  %28 = zext i16 %27 to i32
  %29 = and i32 %28, -9, !taffo.constinfo !90
  %30 = trunc i32 %29 to i16
  %31 = call i32 @_Z17MLX90640_I2CWritehjt(i8 zeroext %0, i32 32768, i16 zeroext %30), !taffo.constinfo !93
  %32 = icmp eq i32 %31, -1
  br i1 %32, label %33, label %34

33:                                               ; preds = %26
  br label %75

34:                                               ; preds = %26
  %35 = call i32 @_Z16MLX90640_I2CReadhjjPt(i8 zeroext %0, i32 1024, i32 832, i16* %1), !taffo.constinfo !86
  %36 = icmp ne i32 %35, 0
  br i1 %36, label %37, label %38

37:                                               ; preds = %34
  br label %75

38:                                               ; preds = %34
  %39 = call i32 @_Z16MLX90640_I2CReadhjjPt(i8 zeroext %0, i32 32768, i32 1, i16* %4), !taffo.constinfo !86
  %40 = icmp ne i32 %39, 0
  br i1 %40, label %41, label %42

41:                                               ; preds = %38
  br label %75

42:                                               ; preds = %38
  %43 = load i16, i16* %4, align 2
  %44 = zext i16 %43 to i32
  %45 = and i32 %44, 8, !taffo.constinfo !90
  %46 = trunc i32 %45 to i16
  %47 = zext i8 %.01 to i32
  %48 = add nsw i32 %47, 1, !taffo.constinfo !90
  %49 = trunc i32 %48 to i8
  br label %18, !llvm.loop !94

50:                                               ; preds = %24
  %51 = zext i8 %.01 to i32
  %52 = icmp sgt i32 %51, 1
  br i1 %52, label %53, label %56

53:                                               ; preds = %50
  %54 = zext i8 %.01 to i32
  %55 = call i32 (i8*, ...) @printf(i8* getelementptr inbounds ([38 x i8], [38 x i8]* @.str.16, i64 0, i64 0), i32 %54), !taffo.constinfo !95
  br label %56

56:                                               ; preds = %53, %50
  %57 = zext i8 %.01 to i32
  %58 = icmp sgt i32 %57, 4
  br i1 %58, label %59, label %60

59:                                               ; preds = %56
  br label %75

60:                                               ; preds = %56
  %61 = call i32 @_Z16MLX90640_I2CReadhjjPt(i8 zeroext %0, i32 32781, i32 1, i16* %3), !taffo.constinfo !86
  %62 = load i16, i16* %3, align 2
  %63 = getelementptr inbounds i16, i16* %1, i64 832
  store i16 %62, i16* %63, align 2
  %64 = load i16, i16* %4, align 2
  %65 = zext i16 %64 to i32
  %66 = and i32 %65, 1, !taffo.constinfo !90
  %67 = trunc i32 %66 to i16
  %68 = getelementptr inbounds i16, i16* %1, i64 833
  store i16 %67, i16* %68, align 2
  %69 = icmp ne i32 %61, 0
  br i1 %69, label %70, label %71

70:                                               ; preds = %60
  br label %75

71:                                               ; preds = %60
  %72 = getelementptr inbounds i16, i16* %1, i64 833
  %73 = load i16, i16* %72, align 2
  %74 = zext i16 %73 to i32
  br label %75

75:                                               ; preds = %71, %70, %59, %41, %37, %33, %11
  %.0 = phi i32 [ %9, %11 ], [ %31, %33 ], [ %35, %37 ], [ %39, %41 ], [ -8, %59 ], [ %61, %70 ], [ %74, %71 ]
  ret i32 %.0
}

; Function Attrs: noinline nounwind uwtable mustprogress
define dso_local i32 @_Z17MLX90640_I2CWritehjt(i8 zeroext %0, i32 %1, i16 zeroext %2) #1 !taffo.initweight !96 !taffo.funinfo !97 {
  call void @abort() #6, !taffo.constinfo !89
  unreachable
}

declare !taffo.initweight !98 !taffo.funinfo !99 dso_local i32 @printf(i8*, ...) #2

; Function Attrs: noinline uwtable mustprogress
define dso_local i32 @_Z26MLX90640_ExtractParametersPKt(i16* %0) #0 !taffo.initweight !98 !taffo.funinfo !100 {
  %2 = call i32 @_Z16CheckEEPROMValidPKt(i16* %0), !taffo.info !101, !taffo.constinfo !90
  %3 = icmp eq i32 %2, 0, !taffo.info !103
  br i1 %3, label %4, label %6

4:                                                ; preds = %1
  call void @_Z20ExtractVDDParametersPKt(i16* %0), !taffo.constinfo !90
  call void @_Z21ExtractPTATParametersPKt(i16* %0), !taffo.constinfo !90
  call void @_Z21ExtractGainParametersPKt(i16* %0), !taffo.constinfo !90
  call void @_Z20ExtractTgcParametersPKt(i16* %0), !taffo.constinfo !90
  call void @_Z27ExtractResolutionParametersPKt(i16* %0), !taffo.constinfo !90
  call void @_Z21ExtractKsTaParametersPKt(i16* %0), !taffo.constinfo !90
  call void @_Z21ExtractKsToParametersPKt(i16* %0), !taffo.constinfo !90
  call void @_Z22ExtractAlphaParametersPKt(i16* %0), !taffo.constinfo !90
  call void @_Z23ExtractOffsetParametersPKt(i16* %0), !taffo.constinfo !90
  call void @_Z25ExtractKtaPixelParametersPKt(i16* %0), !taffo.constinfo !90
  call void @_Z24ExtractKvPixelParametersPKt(i16* %0), !taffo.constinfo !90
  call void @_Z19ExtractCPParametersPKt(i16* %0), !taffo.constinfo !90
  call void @_Z21ExtractCILCParametersPKt(i16* %0), !taffo.constinfo !90
  %5 = call i32 @_Z22ExtractDeviatingPixelsPKt(i16* %0), !taffo.info !105, !taffo.constinfo !90
  br label %6

6:                                                ; preds = %4, %1
  %.0 = phi i32 [ %5, %4 ], [ %2, %1 ], !taffo.info !101
  ret i32 %.0
}

; Function Attrs: noinline nounwind uwtable mustprogress
define dso_local i32 @_Z16CheckEEPROMValidPKt(i16* %0) #1 !taffo.initweight !98 !taffo.funinfo !100 {
  %2 = getelementptr inbounds i16, i16* %0, i64 10, !taffo.info !74
  %3 = load i16, i16* %2, align 2, !taffo.info !74
  %4 = zext i16 %3 to i32, !taffo.info !74
  %5 = and i32 %4, 64, !taffo.constinfo !90
  %6 = icmp eq i32 %5, 0, !taffo.info !103
  br i1 %6, label %7, label %8

7:                                                ; preds = %1
  br label %9

8:                                                ; preds = %1
  br label %9

9:                                                ; preds = %8, %7
  %.0 = phi i32 [ 0, %7 ], [ -7, %8 ], !taffo.info !101
  ret i32 %.0
}

; Function Attrs: noinline nounwind uwtable mustprogress
define dso_local void @_Z20ExtractVDDParametersPKt(i16* %0) #1 !taffo.initweight !98 !taffo.funinfo !100 {
  %2 = getelementptr inbounds i16, i16* %0, i64 51, !taffo.info !74
  %3 = load i16, i16* %2, align 2, !taffo.info !74
  %4 = zext i16 %3 to i32, !taffo.info !74
  %5 = and i32 %4, 65280, !taffo.constinfo !90
  %6 = ashr i32 %5, 8, !taffo.constinfo !90
  %7 = trunc i32 %6 to i16
  %8 = sext i16 %7 to i32
  %9 = icmp sgt i32 %8, 127, !taffo.info !103
  br i1 %9, label %10, label %14

10:                                               ; preds = %1
  %11 = sext i16 %7 to i32
  %12 = sub nsw i32 %11, 256, !taffo.constinfo !90
  %13 = trunc i32 %12 to i16
  br label %14

14:                                               ; preds = %10, %1
  %.0 = phi i16 [ %13, %10 ], [ %7, %1 ]
  %15 = sext i16 %.0 to i32
  %16 = mul nsw i32 32, %15, !taffo.constinfo !90
  %17 = trunc i32 %16 to i16
  %18 = getelementptr inbounds i16, i16* %0, i64 51, !taffo.info !74
  %19 = load i16, i16* %18, align 2, !taffo.info !74
  %20 = zext i16 %19 to i32, !taffo.info !74
  %21 = and i32 %20, 255, !taffo.constinfo !90
  %22 = trunc i32 %21 to i16
  %23 = sext i16 %22 to i32
  %24 = sub nsw i32 %23, 256, !taffo.constinfo !90
  %25 = shl i32 %24, 5, !taffo.constinfo !90
  %26 = sub nsw i32 %25, 8192, !taffo.constinfo !90
  %27 = trunc i32 %26 to i16
  store i16 %17, i16* @params_kVdd, align 2, !taffo.initweight !107, !taffo.info !1, !taffo.constinfo !90
  store i16 %27, i16* @params_vdd25, align 2, !taffo.initweight !107, !taffo.info !1, !taffo.constinfo !90
  ret void
}

; Function Attrs: noinline uwtable mustprogress
define dso_local void @_Z21ExtractPTATParametersPKt(i16* %0) #0 !taffo.initweight !98 !taffo.funinfo !100 {
  %2 = getelementptr inbounds i16, i16* %0, i64 50, !taffo.info !74
  %3 = load i16, i16* %2, align 2, !taffo.info !74
  %4 = zext i16 %3 to i32, !taffo.info !74
  %5 = and i32 %4, 64512, !taffo.constinfo !90
  %6 = ashr i32 %5, 10, !taffo.constinfo !90
  %7 = sitofp i32 %6 to float
  %8 = fcmp ogt float %7, 3.100000e+01, !taffo.initweight !108, !taffo.info !109
  br i1 %8, label %9, label %13, !taffo.initweight !110, !taffo.info !111

9:                                                ; preds = %1
  %10 = shl i32 %6, 25, !taffo.constinfo !90
  %s7_25fixp = sub i32 %10, -2147483648, !taffo.info !113, !taffo.constinfo !115
  %11 = sitofp i32 %s7_25fixp to float, !taffo.info !113
  %12 = fdiv float %11, 0x4180000000000000, !taffo.info !113, !taffo.constinfo !115
  br label %13

13:                                               ; preds = %1, %9
  %.01 = phi float [ %12, %9 ], [ %7, %1 ]
  %14 = fmul float 0x4180000000000000, %.01, !taffo.info !113
  %15 = fptosi float %14 to i32, !taffo.info !113
  %16 = sext i32 %15 to i64, !taffo.info !113
  %17 = sdiv i64 %16, 4096, !taffo.info !118, !taffo.constinfo !120
  %s7_25fixp2 = trunc i64 %17 to i32, !taffo.info !113
  %18 = getelementptr inbounds i16, i16* %0, i64 50, !taffo.info !74
  %19 = load i16, i16* %18, align 2, !taffo.info !74
  %20 = zext i16 %19 to i32, !taffo.info !74
  %21 = and i32 %20, 1023, !taffo.constinfo !90
  %22 = sitofp i32 %21 to float
  %23 = fcmp ogt float %22, 5.110000e+02, !taffo.initweight !108, !taffo.info !109
  br i1 %23, label %24, label %28, !taffo.initweight !110, !taffo.info !124

24:                                               ; preds = %13
  %25 = shl i32 %21, 21, !taffo.constinfo !90
  %s11_21fixp = sub i32 %25, -2147483648, !taffo.info !126, !taffo.constinfo !128
  %26 = sitofp i32 %s11_21fixp to float, !taffo.info !126
  %27 = fdiv float %26, 0x4140000000000000, !taffo.info !126, !taffo.constinfo !128
  br label %28

28:                                               ; preds = %13, %24
  %.0 = phi float [ %27, %24 ], [ %22, %13 ]
  %29 = fmul float 0x4140000000000000, %.0, !taffo.info !126
  %30 = fptosi float %29 to i32, !taffo.info !126
  %31 = sext i32 %30 to i64, !taffo.info !126
  %32 = sdiv i64 %31, 8, !taffo.info !131, !taffo.constinfo !133
  %s11_21fixp3 = trunc i64 %32 to i32, !taffo.info !126
  %33 = getelementptr inbounds i16, i16* %0, i64 49, !taffo.info !74
  %34 = load i16, i16* %33, align 2, !taffo.info !74
  %35 = getelementptr inbounds i16, i16* %0, i64 16, !taffo.info !74
  %36 = load i16, i16* %35, align 2, !taffo.info !74
  %37 = zext i16 %36 to i32, !taffo.info !74
  %38 = and i32 %37, 61440, !taffo.constinfo !90
  %39 = sitofp i32 %38 to double
  %40 = call double @_ZSt3powIidEN9__gnu_cxx11__promote_2IT_T0_NS0_9__promoteIS2_Xsr3std12__is_integerIS2_EE7__valueEE6__typeENS4_IS3_Xsr3std12__is_integerIS3_EE7__valueEE6__typeEE6__typeES2_S3_(i32 2, double 1.400000e+01), !taffo.constinfo !136
  %41 = fdiv double %39, %40
  %42 = fadd double %41, 8.000000e+00, !taffo.constinfo !139
  %43 = fptrunc double %42 to float
  %44 = fmul float 0x41B0000000000000, %43, !taffo.info !141
  %45 = fptoui float %44 to i32, !taffo.info !141
  %46 = shl i32 %s7_25fixp2, 5, !taffo.info !113
  store i32 %46, i32* @params_KvPTAT.fixp, align 4, !taffo.info !141, !taffo.constinfo !90
  %47 = shl i32 %s11_21fixp3, 2, !taffo.info !126
  store i32 %47, i32* @params_KtPTAT.fixp, align 4, !taffo.info !142, !taffo.constinfo !90
  store i16 %34, i16* @params_vPTAT25, align 2, !taffo.initweight !107, !taffo.info !1, !taffo.constinfo !90
  store i32 %45, i32* @params_alphaPTAT.fixp, align 4, !taffo.info !143, !taffo.constinfo !90
  ret void
}

; Function Attrs: noinline nounwind uwtable mustprogress
define dso_local void @_Z21ExtractGainParametersPKt(i16* %0) #1 !taffo.initweight !98 !taffo.funinfo !100 {
  %2 = getelementptr inbounds i16, i16* %0, i64 48, !taffo.info !74
  %3 = load i16, i16* %2, align 2, !taffo.info !74
  %4 = sext i16 %3 to i32, !taffo.info !74
  %5 = icmp sgt i32 %4, 32767, !taffo.info !26
  br i1 %5, label %6, label %10

6:                                                ; preds = %1
  %7 = sext i16 %3 to i32, !taffo.info !74
  %8 = sub nsw i32 %7, 65536, !taffo.info !144, !taffo.constinfo !90
  %9 = trunc i32 %8 to i16, !taffo.info !26
  br label %10

10:                                               ; preds = %6, %1
  %.0 = phi i16 [ %9, %6 ], [ %3, %1 ], !taffo.info !74
  store i16 %.0, i16* @params_gainEE, align 2, !taffo.initweight !107, !taffo.info !1, !taffo.constinfo !90
  ret void
}

; Function Attrs: noinline nounwind uwtable mustprogress
define dso_local void @_Z20ExtractTgcParametersPKt(i16* %0) #1 !taffo.initweight !98 !taffo.funinfo !100 {
  %2 = getelementptr inbounds i16, i16* %0, i64 60, !taffo.info !74
  %3 = load i16, i16* %2, align 2, !taffo.info !74
  %4 = zext i16 %3 to i32, !taffo.info !74
  %5 = and i32 %4, 255, !taffo.constinfo !90
  %6 = sitofp i32 %5 to float
  %7 = fcmp ogt float %6, 1.270000e+02, !taffo.initweight !108, !taffo.info !109
  br i1 %7, label %8, label %12, !taffo.initweight !110, !taffo.info !146

8:                                                ; preds = %1
  %9 = shl i32 %5, 23, !taffo.constinfo !90
  %s9_23fixp = sub i32 %9, -2147483648, !taffo.info !148, !taffo.constinfo !149
  %10 = sitofp i32 %s9_23fixp to float, !taffo.info !148
  %11 = fdiv float %10, 0x4160000000000000, !taffo.info !148, !taffo.constinfo !149
  br label %12

12:                                               ; preds = %1, %8
  %.0 = phi float [ %11, %8 ], [ %6, %1 ]
  %13 = fmul float 0x4160000000000000, %.0, !taffo.info !148
  %14 = fptosi float %13 to i32, !taffo.info !148
  %15 = sext i32 %14 to i64, !taffo.info !148
  %16 = sdiv i64 %15, 32, !taffo.info !152, !taffo.constinfo !154
  %s9_23fixp1 = trunc i64 %16 to i32, !taffo.info !148
  %17 = shl i32 %s9_23fixp1, 4, !taffo.info !148
  store i32 %17, i32* @params_tgc.fixp, align 4, !taffo.info !157, !taffo.constinfo !90
  ret void
}

; Function Attrs: noinline nounwind uwtable mustprogress
define dso_local void @_Z27ExtractResolutionParametersPKt(i16* %0) #1 !taffo.initweight !98 !taffo.funinfo !100 {
  %2 = getelementptr inbounds i16, i16* %0, i64 56, !taffo.info !74
  %3 = load i16, i16* %2, align 2, !taffo.info !74
  %4 = zext i16 %3 to i32, !taffo.info !74
  %5 = and i32 %4, 12288, !taffo.constinfo !90
  %6 = ashr i32 %5, 12, !taffo.constinfo !90
  %7 = trunc i32 %6 to i8
  %8 = zext i8 %7 to i32
  store i32 %8, i32* @params_resolutionEE, align 4, !taffo.initweight !107, !taffo.info !24, !taffo.constinfo !90
  ret void
}

; Function Attrs: noinline nounwind uwtable mustprogress
define dso_local void @_Z21ExtractKsTaParametersPKt(i16* %0) #1 !taffo.initweight !98 !taffo.funinfo !100 {
  %2 = getelementptr inbounds i16, i16* %0, i64 60, !taffo.info !74
  %3 = load i16, i16* %2, align 2, !taffo.info !74
  %4 = zext i16 %3 to i32, !taffo.info !74
  %5 = and i32 %4, 65280, !taffo.constinfo !90
  %6 = ashr i32 %5, 8, !taffo.constinfo !90
  %7 = sitofp i32 %6 to float
  %8 = fcmp ogt float %7, 1.270000e+02, !taffo.initweight !108, !taffo.info !158
  br i1 %8, label %9, label %13, !taffo.initweight !110, !taffo.info !158

9:                                                ; preds = %1
  %10 = shl i32 %6, 23, !taffo.constinfo !90
  %s9_23fixp = sub i32 %10, -2147483648, !taffo.info !159, !taffo.constinfo !149
  %11 = sitofp i32 %s9_23fixp to float, !taffo.info !159
  %12 = fdiv float %11, 0x4160000000000000, !taffo.info !159, !taffo.constinfo !149
  br label %13

13:                                               ; preds = %1, %9
  %.0 = phi float [ %12, %9 ], [ %7, %1 ]
  %14 = fmul float 0x4160000000000000, %.0, !taffo.info !159
  %15 = fptosi float %14 to i32, !taffo.info !159
  %16 = sext i32 %15 to i64, !taffo.info !159
  %17 = sdiv i64 %16, 8192, !taffo.info !160, !taffo.constinfo !161
  %s9_23fixp1 = trunc i64 %17 to i32, !taffo.info !159
  %18 = shl i32 %s9_23fixp1, 7, !taffo.info !159
  store i32 %18, i32* @params_KsTa.fixp, align 4, !taffo.info !164, !taffo.constinfo !90
  ret void
}

; Function Attrs: noinline nounwind uwtable mustprogress
define dso_local void @_Z21ExtractKsToParametersPKt(i16* %0) #1 !taffo.initweight !98 !taffo.funinfo !100 {
  %2 = getelementptr inbounds i16, i16* %0, i64 63, !taffo.info !74
  %3 = load i16, i16* %2, align 2, !taffo.info !74
  %4 = zext i16 %3 to i32, !taffo.info !74
  %5 = and i32 %4, 12288, !taffo.constinfo !90
  %6 = ashr i32 %5, 12, !taffo.constinfo !90
  %7 = mul nsw i32 %6, 10, !taffo.constinfo !90
  %8 = trunc i32 %7 to i8
  store i16 -40, i16* getelementptr inbounds ([4 x i16], [4 x i16]* @params_ct, i64 0, i64 0), align 2, !taffo.initweight !108, !taffo.info !1, !taffo.constinfo !90
  store i16 0, i16* getelementptr inbounds ([4 x i16], [4 x i16]* @params_ct, i64 0, i64 1), align 2, !taffo.initweight !108, !taffo.info !1, !taffo.constinfo !90
  %9 = getelementptr inbounds i16, i16* %0, i64 63, !taffo.info !74
  %10 = load i16, i16* %9, align 2, !taffo.info !74
  %11 = zext i16 %10 to i32, !taffo.info !74
  %12 = and i32 %11, 240, !taffo.constinfo !90
  %13 = ashr i32 %12, 4, !taffo.constinfo !90
  %14 = trunc i32 %13 to i16
  store i16 %14, i16* getelementptr inbounds ([4 x i16], [4 x i16]* @params_ct, i64 0, i64 2), align 2, !taffo.initweight !108, !taffo.info !1, !taffo.constinfo !90
  %15 = getelementptr inbounds i16, i16* %0, i64 63, !taffo.info !74
  %16 = load i16, i16* %15, align 2, !taffo.info !74
  %17 = zext i16 %16 to i32, !taffo.info !74
  %18 = and i32 %17, 3840, !taffo.constinfo !90
  %19 = ashr i32 %18, 8, !taffo.constinfo !90
  %20 = trunc i32 %19 to i16
  store i16 %20, i16* getelementptr inbounds ([4 x i16], [4 x i16]* @params_ct, i64 0, i64 3), align 2, !taffo.initweight !108, !taffo.info !1, !taffo.constinfo !90
  %21 = load i16, i16* getelementptr inbounds ([4 x i16], [4 x i16]* @params_ct, i64 0, i64 2), align 2, !taffo.initweight !108, !taffo.info !1
  %22 = sext i16 %21 to i32, !taffo.initweight !110, !taffo.info !1
  %23 = sext i8 %8 to i32
  %24 = mul nsw i32 %22, %23, !taffo.initweight !165, !taffo.info !1
  %25 = trunc i32 %24 to i16, !taffo.initweight !166, !taffo.info !1
  store i16 %25, i16* getelementptr inbounds ([4 x i16], [4 x i16]* @params_ct, i64 0, i64 2), align 2, !taffo.initweight !108, !taffo.info !1, !taffo.constinfo !90
  %26 = load i16, i16* getelementptr inbounds ([4 x i16], [4 x i16]* @params_ct, i64 0, i64 2), align 2, !taffo.initweight !108, !taffo.info !1
  %27 = sext i16 %26 to i32, !taffo.initweight !110, !taffo.info !1
  %28 = load i16, i16* getelementptr inbounds ([4 x i16], [4 x i16]* @params_ct, i64 0, i64 3), align 2, !taffo.initweight !108, !taffo.info !1
  %29 = sext i16 %28 to i32, !taffo.initweight !110, !taffo.info !1
  %30 = sext i8 %8 to i32
  %31 = mul nsw i32 %29, %30, !taffo.initweight !165, !taffo.info !1
  %32 = add nsw i32 %27, %31, !taffo.initweight !165, !taffo.info !1
  %33 = trunc i32 %32 to i16, !taffo.initweight !166, !taffo.info !1
  store i16 %33, i16* getelementptr inbounds ([4 x i16], [4 x i16]* @params_ct, i64 0, i64 3), align 2, !taffo.initweight !108, !taffo.info !1, !taffo.constinfo !90
  %34 = getelementptr inbounds i16, i16* %0, i64 63, !taffo.info !74
  %35 = load i16, i16* %34, align 2, !taffo.info !74
  %36 = zext i16 %35 to i32, !taffo.info !74
  %37 = and i32 %36, 15, !taffo.constinfo !90
  %38 = add nsw i32 %37, 8, !taffo.constinfo !90
  %39 = shl i32 1, %38, !taffo.constinfo !90
  %40 = getelementptr inbounds i16, i16* %0, i64 61, !taffo.info !74
  %41 = load i16, i16* %40, align 2, !taffo.info !74
  %42 = zext i16 %41 to i32, !taffo.info !74
  %43 = and i32 %42, 255, !taffo.constinfo !90
  %44 = sitofp i32 %43 to float
  store float %44, float* getelementptr inbounds ([4 x float], [4 x float]* @params_ksTo, i64 0, i64 0), align 16, !taffo.info !167, !taffo.constinfo !90
  %45 = getelementptr inbounds i16, i16* %0, i64 61, !taffo.info !74
  %46 = load i16, i16* %45, align 2, !taffo.info !74
  %47 = zext i16 %46 to i32, !taffo.info !74
  %48 = and i32 %47, 65280, !taffo.constinfo !90
  %49 = ashr i32 %48, 8, !taffo.constinfo !90
  %50 = sitofp i32 %49 to float
  store float %50, float* getelementptr inbounds ([4 x float], [4 x float]* @params_ksTo, i64 0, i64 1), align 4, !taffo.info !167, !taffo.constinfo !90
  %51 = getelementptr inbounds i16, i16* %0, i64 62, !taffo.info !74
  %52 = load i16, i16* %51, align 2, !taffo.info !74
  %53 = zext i16 %52 to i32, !taffo.info !74
  %54 = and i32 %53, 255, !taffo.constinfo !90
  %55 = sitofp i32 %54 to float
  store float %55, float* getelementptr inbounds ([4 x float], [4 x float]* @params_ksTo, i64 0, i64 2), align 8, !taffo.info !167, !taffo.constinfo !90
  %56 = getelementptr inbounds i16, i16* %0, i64 62, !taffo.info !74
  %57 = load i16, i16* %56, align 2, !taffo.info !74
  %58 = zext i16 %57 to i32, !taffo.info !74
  %59 = and i32 %58, 65280, !taffo.constinfo !90
  %60 = ashr i32 %59, 8, !taffo.constinfo !90
  %61 = sitofp i32 %60 to float
  store float %61, float* getelementptr inbounds ([4 x float], [4 x float]* @params_ksTo, i64 0, i64 3), align 4, !taffo.info !167, !taffo.constinfo !90
  br label %62

62:                                               ; preds = %76, %1
  %.0 = phi i32 [ 0, %1 ], [ %77, %76 ], !taffo.info !169
  %63 = icmp slt i32 %.0, 4, !taffo.info !103
  br i1 %63, label %64, label %78

64:                                               ; preds = %62
  %65 = sext i32 %.0 to i64, !taffo.info !171
  %s12_20fixp4 = getelementptr inbounds [4 x i32], [4 x i32]* @params_ksTo.fixp, i64 0, i64 %65, !taffo.info !30
  %s12_20fixp7 = load i32, i32* %s12_20fixp4, align 4, !taffo.info !173
  %66 = icmp sgt i32 %s12_20fixp7, 133169152, !taffo.info !175
  br i1 %66, label %67, label %70, !taffo.initweight !165, !taffo.info !167

67:                                               ; preds = %64
  %68 = sext i32 %.0 to i64, !taffo.info !171
  %s12_20fixp3 = getelementptr inbounds [4 x i32], [4 x i32]* @params_ksTo.fixp, i64 0, i64 %68, !taffo.info !30
  %s12_20fixp6 = load i32, i32* %s12_20fixp3, align 4, !taffo.info !173
  %s12_20fixp9 = sub i32 %s12_20fixp6, 268435456, !taffo.info !176, !taffo.constinfo !149
  %69 = sext i32 %.0 to i64, !taffo.info !171
  %s12_20fixp2 = getelementptr inbounds [4 x i32], [4 x i32]* @params_ksTo.fixp, i64 0, i64 %69, !taffo.info !30
  store i32 %s12_20fixp9, i32* %s12_20fixp2, align 4, !taffo.info !167
  br label %70

70:                                               ; preds = %64, %67
  %71 = sext i32 %.0 to i64, !taffo.info !171
  %s12_20fixp1 = getelementptr inbounds [4 x i32], [4 x i32]* @params_ksTo.fixp, i64 0, i64 %71, !taffo.info !30
  %s12_20fixp5 = load i32, i32* %s12_20fixp1, align 4, !taffo.info !30
  %72 = sext i32 %s12_20fixp5 to i64, !taffo.info !30
  %73 = sext i32 %39 to i64
  %74 = sdiv i64 %72, %73, !taffo.info !178
  %s12_20fixp8 = trunc i64 %74 to i32, !taffo.info !180
  %75 = sext i32 %.0 to i64, !taffo.info !171
  %s12_20fixp = getelementptr inbounds [4 x i32], [4 x i32]* @params_ksTo.fixp, i64 0, i64 %75, !taffo.info !30
  store i32 %s12_20fixp8, i32* %s12_20fixp, align 4, !taffo.info !167
  br label %76

76:                                               ; preds = %70
  %77 = add nsw i32 %.0, 1, !taffo.info !181, !taffo.constinfo !90
  br label %62, !llvm.loop !183

78:                                               ; preds = %62
  ret void
}

; Function Attrs: noinline uwtable mustprogress
define dso_local void @_Z22ExtractAlphaParametersPKt(i16* %0) #0 !taffo.initweight !98 !taffo.funinfo !100 {
  %2 = alloca [24 x i32], align 16
  %3 = alloca [32 x i32], align 16
  %4 = getelementptr inbounds i16, i16* %0, i64 32, !taffo.info !74
  %5 = load i16, i16* %4, align 2, !taffo.info !74
  %6 = zext i16 %5 to i32, !taffo.info !74
  %7 = and i32 %6, 15, !taffo.constinfo !90
  %8 = trunc i32 %7 to i8
  %9 = getelementptr inbounds i16, i16* %0, i64 32, !taffo.info !74
  %10 = load i16, i16* %9, align 2, !taffo.info !74
  %11 = zext i16 %10 to i32, !taffo.info !74
  %12 = and i32 %11, 240, !taffo.constinfo !90
  %13 = ashr i32 %12, 4, !taffo.constinfo !90
  %14 = trunc i32 %13 to i8
  %15 = getelementptr inbounds i16, i16* %0, i64 32, !taffo.info !74
  %16 = load i16, i16* %15, align 2, !taffo.info !74
  %17 = zext i16 %16 to i32, !taffo.info !74
  %18 = and i32 %17, 3840, !taffo.constinfo !90
  %19 = ashr i32 %18, 8, !taffo.constinfo !90
  %20 = trunc i32 %19 to i8
  %21 = getelementptr inbounds i16, i16* %0, i64 32, !taffo.info !74
  %22 = load i16, i16* %21, align 2, !taffo.info !74
  %23 = zext i16 %22 to i32, !taffo.info !74
  %24 = and i32 %23, 61440, !taffo.constinfo !90
  %25 = ashr i32 %24, 12, !taffo.constinfo !90
  %26 = add nsw i32 %25, 30, !taffo.constinfo !90
  %27 = trunc i32 %26 to i8
  %28 = getelementptr inbounds i16, i16* %0, i64 33, !taffo.info !74
  %29 = load i16, i16* %28, align 2, !taffo.info !74
  %30 = zext i16 %29 to i32, !taffo.info !74
  br label %31

31:                                               ; preds = %74, %1
  %.05 = phi i32 [ 0, %1 ], [ %75, %74 ], !taffo.info !184
  %32 = icmp slt i32 %.05, 6, !taffo.info !103
  br i1 %32, label %33, label %76

33:                                               ; preds = %31
  %34 = mul nsw i32 %.05, 4, !taffo.info !186, !taffo.constinfo !90
  %35 = add nsw i32 34, %.05, !taffo.info !188, !taffo.constinfo !90
  %36 = sext i32 %35 to i64, !taffo.info !188
  %37 = getelementptr inbounds i16, i16* %0, i64 %36, !taffo.info !74
  %38 = load i16, i16* %37, align 2, !taffo.info !74
  %39 = zext i16 %38 to i32, !taffo.info !74
  %40 = and i32 %39, 15, !taffo.constinfo !90
  %41 = add nsw i32 %34, 0, !taffo.info !186, !taffo.constinfo !90
  %42 = sext i32 %41 to i64, !taffo.info !186
  %43 = getelementptr inbounds [24 x i32], [24 x i32]* %2, i64 0, i64 %42
  store i32 %40, i32* %43, align 4
  %44 = add nsw i32 34, %.05, !taffo.info !188, !taffo.constinfo !90
  %45 = sext i32 %44 to i64, !taffo.info !188
  %46 = getelementptr inbounds i16, i16* %0, i64 %45, !taffo.info !74
  %47 = load i16, i16* %46, align 2, !taffo.info !74
  %48 = zext i16 %47 to i32, !taffo.info !74
  %49 = and i32 %48, 240, !taffo.constinfo !90
  %50 = ashr i32 %49, 4, !taffo.constinfo !90
  %51 = add nsw i32 %34, 1, !taffo.info !190, !taffo.constinfo !90
  %52 = sext i32 %51 to i64, !taffo.info !190
  %53 = getelementptr inbounds [24 x i32], [24 x i32]* %2, i64 0, i64 %52
  store i32 %50, i32* %53, align 4
  %54 = add nsw i32 34, %.05, !taffo.info !188, !taffo.constinfo !90
  %55 = sext i32 %54 to i64, !taffo.info !188
  %56 = getelementptr inbounds i16, i16* %0, i64 %55, !taffo.info !74
  %57 = load i16, i16* %56, align 2, !taffo.info !74
  %58 = zext i16 %57 to i32, !taffo.info !74
  %59 = and i32 %58, 3840, !taffo.constinfo !90
  %60 = ashr i32 %59, 8, !taffo.constinfo !90
  %61 = add nsw i32 %34, 2, !taffo.info !192, !taffo.constinfo !90
  %62 = sext i32 %61 to i64, !taffo.info !192
  %63 = getelementptr inbounds [24 x i32], [24 x i32]* %2, i64 0, i64 %62
  store i32 %60, i32* %63, align 4
  %64 = add nsw i32 34, %.05, !taffo.info !188, !taffo.constinfo !90
  %65 = sext i32 %64 to i64, !taffo.info !188
  %66 = getelementptr inbounds i16, i16* %0, i64 %65, !taffo.info !74
  %67 = load i16, i16* %66, align 2, !taffo.info !74
  %68 = zext i16 %67 to i32, !taffo.info !74
  %69 = and i32 %68, 61440, !taffo.constinfo !90
  %70 = ashr i32 %69, 12, !taffo.constinfo !90
  %71 = add nsw i32 %34, 3, !taffo.info !194, !taffo.constinfo !90
  %72 = sext i32 %71 to i64, !taffo.info !194
  %73 = getelementptr inbounds [24 x i32], [24 x i32]* %2, i64 0, i64 %72
  store i32 %70, i32* %73, align 4
  br label %74

74:                                               ; preds = %33
  %75 = add nsw i32 %.05, 1, !taffo.info !196, !taffo.constinfo !90
  br label %31, !llvm.loop !198

76:                                               ; preds = %31
  br label %77

77:                                               ; preds = %92, %76
  %.04 = phi i32 [ 0, %76 ], [ %93, %92 ], !taffo.info !199
  %78 = icmp slt i32 %.04, 24, !taffo.info !103
  br i1 %78, label %79, label %94

79:                                               ; preds = %77
  %80 = sext i32 %.04 to i64, !taffo.info !186
  %81 = getelementptr inbounds [24 x i32], [24 x i32]* %2, i64 0, i64 %80
  %82 = load i32, i32* %81, align 4
  %83 = icmp sgt i32 %82, 7, !taffo.info !103
  br i1 %83, label %84, label %91

84:                                               ; preds = %79
  %85 = sext i32 %.04 to i64, !taffo.info !186
  %86 = getelementptr inbounds [24 x i32], [24 x i32]* %2, i64 0, i64 %85
  %87 = load i32, i32* %86, align 4
  %88 = sub nsw i32 %87, 16, !taffo.constinfo !90
  %89 = sext i32 %.04 to i64, !taffo.info !186
  %90 = getelementptr inbounds [24 x i32], [24 x i32]* %2, i64 0, i64 %89
  store i32 %88, i32* %90, align 4
  br label %91

91:                                               ; preds = %84, %79
  br label %92

92:                                               ; preds = %91
  %93 = add nsw i32 %.04, 1, !taffo.info !190, !taffo.constinfo !90
  br label %77, !llvm.loop !201

94:                                               ; preds = %77
  br label %95

95:                                               ; preds = %138, %94
  %.03 = phi i32 [ 0, %94 ], [ %139, %138 ], !taffo.info !202
  %96 = icmp slt i32 %.03, 8, !taffo.info !103
  br i1 %96, label %97, label %140

97:                                               ; preds = %95
  %98 = mul nsw i32 %.03, 4, !taffo.info !204, !taffo.constinfo !90
  %99 = add nsw i32 40, %.03, !taffo.info !206, !taffo.constinfo !90
  %100 = sext i32 %99 to i64, !taffo.info !206
  %101 = getelementptr inbounds i16, i16* %0, i64 %100, !taffo.info !74
  %102 = load i16, i16* %101, align 2, !taffo.info !74
  %103 = zext i16 %102 to i32, !taffo.info !74
  %104 = and i32 %103, 15, !taffo.constinfo !90
  %105 = add nsw i32 %98, 0, !taffo.info !204, !taffo.constinfo !90
  %106 = sext i32 %105 to i64, !taffo.info !204
  %107 = getelementptr inbounds [32 x i32], [32 x i32]* %3, i64 0, i64 %106
  store i32 %104, i32* %107, align 4
  %108 = add nsw i32 40, %.03, !taffo.info !206, !taffo.constinfo !90
  %109 = sext i32 %108 to i64, !taffo.info !206
  %110 = getelementptr inbounds i16, i16* %0, i64 %109, !taffo.info !74
  %111 = load i16, i16* %110, align 2, !taffo.info !74
  %112 = zext i16 %111 to i32, !taffo.info !74
  %113 = and i32 %112, 240, !taffo.constinfo !90
  %114 = ashr i32 %113, 4, !taffo.constinfo !90
  %115 = add nsw i32 %98, 1, !taffo.info !208, !taffo.constinfo !90
  %116 = sext i32 %115 to i64, !taffo.info !208
  %117 = getelementptr inbounds [32 x i32], [32 x i32]* %3, i64 0, i64 %116
  store i32 %114, i32* %117, align 4
  %118 = add nsw i32 40, %.03, !taffo.info !206, !taffo.constinfo !90
  %119 = sext i32 %118 to i64, !taffo.info !206
  %120 = getelementptr inbounds i16, i16* %0, i64 %119, !taffo.info !74
  %121 = load i16, i16* %120, align 2, !taffo.info !74
  %122 = zext i16 %121 to i32, !taffo.info !74
  %123 = and i32 %122, 3840, !taffo.constinfo !90
  %124 = ashr i32 %123, 8, !taffo.constinfo !90
  %125 = add nsw i32 %98, 2, !taffo.info !210, !taffo.constinfo !90
  %126 = sext i32 %125 to i64, !taffo.info !210
  %127 = getelementptr inbounds [32 x i32], [32 x i32]* %3, i64 0, i64 %126
  store i32 %124, i32* %127, align 4
  %128 = add nsw i32 40, %.03, !taffo.info !206, !taffo.constinfo !90
  %129 = sext i32 %128 to i64, !taffo.info !206
  %130 = getelementptr inbounds i16, i16* %0, i64 %129, !taffo.info !74
  %131 = load i16, i16* %130, align 2, !taffo.info !74
  %132 = zext i16 %131 to i32, !taffo.info !74
  %133 = and i32 %132, 61440, !taffo.constinfo !90
  %134 = ashr i32 %133, 12, !taffo.constinfo !90
  %135 = add nsw i32 %98, 3, !taffo.info !212, !taffo.constinfo !90
  %136 = sext i32 %135 to i64, !taffo.info !212
  %137 = getelementptr inbounds [32 x i32], [32 x i32]* %3, i64 0, i64 %136
  store i32 %134, i32* %137, align 4
  br label %138

138:                                              ; preds = %97
  %139 = add nsw i32 %.03, 1, !taffo.info !214, !taffo.constinfo !90
  br label %95, !llvm.loop !216

140:                                              ; preds = %95
  br label %141

141:                                              ; preds = %156, %140
  %.02 = phi i32 [ 0, %140 ], [ %157, %156 ], !taffo.info !217
  %142 = icmp slt i32 %.02, 32, !taffo.info !103
  br i1 %142, label %143, label %158

143:                                              ; preds = %141
  %144 = sext i32 %.02 to i64, !taffo.info !204
  %145 = getelementptr inbounds [32 x i32], [32 x i32]* %3, i64 0, i64 %144
  %146 = load i32, i32* %145, align 4
  %147 = icmp sgt i32 %146, 7, !taffo.info !103
  br i1 %147, label %148, label %155

148:                                              ; preds = %143
  %149 = sext i32 %.02 to i64, !taffo.info !204
  %150 = getelementptr inbounds [32 x i32], [32 x i32]* %3, i64 0, i64 %149
  %151 = load i32, i32* %150, align 4
  %152 = sub nsw i32 %151, 16, !taffo.constinfo !90
  %153 = sext i32 %.02 to i64, !taffo.info !204
  %154 = getelementptr inbounds [32 x i32], [32 x i32]* %3, i64 0, i64 %153
  store i32 %152, i32* %154, align 4
  br label %155

155:                                              ; preds = %148, %143
  br label %156

156:                                              ; preds = %155
  %157 = add nsw i32 %.02, 1, !taffo.info !208, !taffo.constinfo !90
  br label %141, !llvm.loop !219

158:                                              ; preds = %141
  br label %159

159:                                              ; preds = %230, %158
  %.01 = phi i32 [ 0, %158 ], [ %231, %230 ], !taffo.info !199
  %160 = icmp slt i32 %.01, 24, !taffo.info !103
  br i1 %160, label %161, label %232

161:                                              ; preds = %159
  br label %162

162:                                              ; preds = %227, %161
  %.0 = phi i32 [ 0, %161 ], [ %228, %227 ], !taffo.info !220
  %163 = icmp slt i32 %.0, 32, !taffo.info !103
  br i1 %163, label %164, label %229

164:                                              ; preds = %162
  %165 = mul nsw i32 32, %.01, !taffo.info !222, !taffo.constinfo !90
  %166 = add nsw i32 %165, %.0, !taffo.info !224
  %167 = add nsw i32 64, %166, !taffo.info !226, !taffo.constinfo !90
  %168 = sext i32 %167 to i64, !taffo.info !226
  %169 = getelementptr inbounds i16, i16* %0, i64 %168, !taffo.info !74
  %170 = load i16, i16* %169, align 2, !taffo.info !74
  %171 = zext i16 %170 to i32, !taffo.info !74
  %172 = and i32 %171, 1008, !taffo.constinfo !90
  %173 = ashr i32 %172, 4, !taffo.constinfo !90
  %174 = sitofp i32 %173 to float
  %175 = sext i32 %166 to i64, !taffo.info !224
  %176 = getelementptr inbounds [768 x float], [768 x float]* @params_alpha, i64 0, i64 %175, !taffo.info !33
  store float %174, float* %176, align 4
  %177 = sext i32 %166 to i64, !taffo.info !224
  %178 = getelementptr inbounds [768 x float], [768 x float]* @params_alpha, i64 0, i64 %177, !taffo.info !33
  %179 = load float, float* %178, align 4, !taffo.info !228
  %180 = fcmp ogt float %179, 3.100000e+01, !taffo.info !26
  br i1 %180, label %181, label %188

181:                                              ; preds = %164
  %182 = sext i32 %166 to i64, !taffo.info !224
  %183 = getelementptr inbounds [768 x float], [768 x float]* @params_alpha, i64 0, i64 %182, !taffo.info !33
  %184 = load float, float* %183, align 4, !taffo.info !228
  %185 = fsub float %184, 6.400000e+01, !taffo.info !230, !taffo.constinfo !115
  %186 = sext i32 %166 to i64, !taffo.info !224
  %187 = getelementptr inbounds [768 x float], [768 x float]* @params_alpha, i64 0, i64 %186, !taffo.info !33
  store float %185, float* %187, align 4
  br label %188

188:                                              ; preds = %181, %164
  %189 = sext i32 %166 to i64, !taffo.info !224
  %190 = getelementptr inbounds [768 x float], [768 x float]* @params_alpha, i64 0, i64 %189, !taffo.info !33
  %191 = load float, float* %190, align 4, !taffo.info !33
  %192 = zext i8 %8 to i32
  %193 = shl i32 1, %192, !taffo.constinfo !90
  %194 = sitofp i32 %193 to float
  %195 = fmul float %191, %194
  %196 = sext i32 %166 to i64, !taffo.info !224
  %197 = getelementptr inbounds [768 x float], [768 x float]* @params_alpha, i64 0, i64 %196, !taffo.info !33
  store float %195, float* %197, align 4
  %198 = sext i32 %.01 to i64, !taffo.info !186
  %199 = getelementptr inbounds [24 x i32], [24 x i32]* %2, i64 0, i64 %198
  %200 = load i32, i32* %199, align 4
  %201 = zext i8 %20 to i32
  %202 = shl i32 %200, %201
  %203 = add nsw i32 %30, %202
  %204 = sext i32 %.0 to i64, !taffo.info !232
  %205 = getelementptr inbounds [32 x i32], [32 x i32]* %3, i64 0, i64 %204
  %206 = load i32, i32* %205, align 4
  %207 = zext i8 %14 to i32
  %208 = shl i32 %206, %207
  %209 = add nsw i32 %203, %208
  %210 = sitofp i32 %209 to float
  %211 = sext i32 %166 to i64, !taffo.info !224
  %212 = getelementptr inbounds [768 x float], [768 x float]* @params_alpha, i64 0, i64 %211, !taffo.info !33
  %213 = load float, float* %212, align 4, !taffo.info !33
  %214 = fadd float %210, %213
  %215 = sext i32 %166 to i64, !taffo.info !224
  %216 = getelementptr inbounds [768 x float], [768 x float]* @params_alpha, i64 0, i64 %215, !taffo.info !33
  store float %214, float* %216, align 4
  %217 = sext i32 %166 to i64, !taffo.info !224
  %218 = getelementptr inbounds [768 x float], [768 x float]* @params_alpha, i64 0, i64 %217, !taffo.info !33
  %219 = load float, float* %218, align 4, !taffo.info !33
  %220 = fpext float %219 to double, !taffo.info !33
  %221 = uitofp i8 %27 to double
  %222 = call double @_ZSt3powIidEN9__gnu_cxx11__promote_2IT_T0_NS0_9__promoteIS2_Xsr3std12__is_integerIS2_EE7__valueEE6__typeENS4_IS3_Xsr3std12__is_integerIS3_EE7__valueEE6__typeEE6__typeES2_S3_(i32 2, double %221), !taffo.constinfo !95
  %223 = fdiv double %220, %222
  %224 = fptrunc double %223 to float
  %225 = sext i32 %166 to i64, !taffo.info !224
  %226 = getelementptr inbounds [768 x float], [768 x float]* @params_alpha, i64 0, i64 %225, !taffo.info !33
  store float %224, float* %226, align 4
  br label %227

227:                                              ; preds = %188
  %228 = add nsw i32 %.0, 1, !taffo.info !234, !taffo.constinfo !90
  br label %162, !llvm.loop !236

229:                                              ; preds = %162
  br label %230

230:                                              ; preds = %229
  %231 = add nsw i32 %.01, 1, !taffo.info !190, !taffo.constinfo !90
  br label %159, !llvm.loop !237

232:                                              ; preds = %159
  ret void
}

; Function Attrs: noinline nounwind uwtable mustprogress
define dso_local void @_Z23ExtractOffsetParametersPKt(i16* %0) #1 !taffo.initweight !98 !taffo.funinfo !100 {
  %2 = alloca [24 x i32], align 16
  %3 = alloca [32 x i32], align 16
  %4 = getelementptr inbounds i16, i16* %0, i64 16, !taffo.info !74
  %5 = load i16, i16* %4, align 2, !taffo.info !74
  %6 = zext i16 %5 to i32, !taffo.info !74
  %7 = and i32 %6, 15, !taffo.constinfo !90
  %8 = trunc i32 %7 to i8
  %9 = getelementptr inbounds i16, i16* %0, i64 16, !taffo.info !74
  %10 = load i16, i16* %9, align 2, !taffo.info !74
  %11 = zext i16 %10 to i32, !taffo.info !74
  %12 = and i32 %11, 240, !taffo.constinfo !90
  %13 = ashr i32 %12, 4, !taffo.constinfo !90
  %14 = trunc i32 %13 to i8
  %15 = getelementptr inbounds i16, i16* %0, i64 16, !taffo.info !74
  %16 = load i16, i16* %15, align 2, !taffo.info !74
  %17 = zext i16 %16 to i32, !taffo.info !74
  %18 = and i32 %17, 3840, !taffo.constinfo !90
  %19 = ashr i32 %18, 8, !taffo.constinfo !90
  %20 = trunc i32 %19 to i8
  %21 = getelementptr inbounds i16, i16* %0, i64 17, !taffo.info !74
  %22 = load i16, i16* %21, align 2, !taffo.info !74
  %23 = sext i16 %22 to i32, !taffo.info !74
  %24 = icmp sgt i32 %23, 32767, !taffo.info !26
  br i1 %24, label %25, label %29

25:                                               ; preds = %1
  %26 = sext i16 %22 to i32, !taffo.info !74
  %27 = sub nsw i32 %26, 65536, !taffo.info !144, !taffo.constinfo !90
  %28 = trunc i32 %27 to i16, !taffo.info !26
  br label %29

29:                                               ; preds = %25, %1
  %.01 = phi i16 [ %28, %25 ], [ %22, %1 ], !taffo.info !74
  br label %30

30:                                               ; preds = %73, %29
  %.05 = phi i32 [ 0, %29 ], [ %74, %73 ], !taffo.info !184
  %31 = icmp slt i32 %.05, 6, !taffo.info !103
  br i1 %31, label %32, label %75

32:                                               ; preds = %30
  %33 = mul nsw i32 %.05, 4, !taffo.info !186, !taffo.constinfo !90
  %34 = add nsw i32 18, %.05, !taffo.info !238, !taffo.constinfo !90
  %35 = sext i32 %34 to i64, !taffo.info !238
  %36 = getelementptr inbounds i16, i16* %0, i64 %35, !taffo.info !74
  %37 = load i16, i16* %36, align 2, !taffo.info !74
  %38 = zext i16 %37 to i32, !taffo.info !74
  %39 = and i32 %38, 15, !taffo.constinfo !90
  %40 = add nsw i32 %33, 0, !taffo.info !186, !taffo.constinfo !90
  %41 = sext i32 %40 to i64, !taffo.info !186
  %42 = getelementptr inbounds [24 x i32], [24 x i32]* %2, i64 0, i64 %41
  store i32 %39, i32* %42, align 4
  %43 = add nsw i32 18, %.05, !taffo.info !238, !taffo.constinfo !90
  %44 = sext i32 %43 to i64, !taffo.info !238
  %45 = getelementptr inbounds i16, i16* %0, i64 %44, !taffo.info !74
  %46 = load i16, i16* %45, align 2, !taffo.info !74
  %47 = zext i16 %46 to i32, !taffo.info !74
  %48 = and i32 %47, 240, !taffo.constinfo !90
  %49 = ashr i32 %48, 4, !taffo.constinfo !90
  %50 = add nsw i32 %33, 1, !taffo.info !190, !taffo.constinfo !90
  %51 = sext i32 %50 to i64, !taffo.info !190
  %52 = getelementptr inbounds [24 x i32], [24 x i32]* %2, i64 0, i64 %51
  store i32 %49, i32* %52, align 4
  %53 = add nsw i32 18, %.05, !taffo.info !238, !taffo.constinfo !90
  %54 = sext i32 %53 to i64, !taffo.info !238
  %55 = getelementptr inbounds i16, i16* %0, i64 %54, !taffo.info !74
  %56 = load i16, i16* %55, align 2, !taffo.info !74
  %57 = zext i16 %56 to i32, !taffo.info !74
  %58 = and i32 %57, 3840, !taffo.constinfo !90
  %59 = ashr i32 %58, 8, !taffo.constinfo !90
  %60 = add nsw i32 %33, 2, !taffo.info !192, !taffo.constinfo !90
  %61 = sext i32 %60 to i64, !taffo.info !192
  %62 = getelementptr inbounds [24 x i32], [24 x i32]* %2, i64 0, i64 %61
  store i32 %59, i32* %62, align 4
  %63 = add nsw i32 18, %.05, !taffo.info !238, !taffo.constinfo !90
  %64 = sext i32 %63 to i64, !taffo.info !238
  %65 = getelementptr inbounds i16, i16* %0, i64 %64, !taffo.info !74
  %66 = load i16, i16* %65, align 2, !taffo.info !74
  %67 = zext i16 %66 to i32, !taffo.info !74
  %68 = and i32 %67, 61440, !taffo.constinfo !90
  %69 = ashr i32 %68, 12, !taffo.constinfo !90
  %70 = add nsw i32 %33, 3, !taffo.info !194, !taffo.constinfo !90
  %71 = sext i32 %70 to i64, !taffo.info !194
  %72 = getelementptr inbounds [24 x i32], [24 x i32]* %2, i64 0, i64 %71
  store i32 %69, i32* %72, align 4
  br label %73

73:                                               ; preds = %32
  %74 = add nsw i32 %.05, 1, !taffo.info !196, !taffo.constinfo !90
  br label %30, !llvm.loop !240

75:                                               ; preds = %30
  br label %76

76:                                               ; preds = %91, %75
  %.06 = phi i32 [ 0, %75 ], [ %92, %91 ], !taffo.info !199
  %77 = icmp slt i32 %.06, 24, !taffo.info !103
  br i1 %77, label %78, label %93

78:                                               ; preds = %76
  %79 = sext i32 %.06 to i64, !taffo.info !186
  %80 = getelementptr inbounds [24 x i32], [24 x i32]* %2, i64 0, i64 %79
  %81 = load i32, i32* %80, align 4
  %82 = icmp sgt i32 %81, 7, !taffo.info !103
  br i1 %82, label %83, label %90

83:                                               ; preds = %78
  %84 = sext i32 %.06 to i64, !taffo.info !186
  %85 = getelementptr inbounds [24 x i32], [24 x i32]* %2, i64 0, i64 %84
  %86 = load i32, i32* %85, align 4
  %87 = sub nsw i32 %86, 16, !taffo.constinfo !90
  %88 = sext i32 %.06 to i64, !taffo.info !186
  %89 = getelementptr inbounds [24 x i32], [24 x i32]* %2, i64 0, i64 %88
  store i32 %87, i32* %89, align 4
  br label %90

90:                                               ; preds = %83, %78
  br label %91

91:                                               ; preds = %90
  %92 = add nsw i32 %.06, 1, !taffo.info !190, !taffo.constinfo !90
  br label %76, !llvm.loop !241

93:                                               ; preds = %76
  br label %94

94:                                               ; preds = %137, %93
  %.04 = phi i32 [ 0, %93 ], [ %138, %137 ], !taffo.info !202
  %95 = icmp slt i32 %.04, 8, !taffo.info !103
  br i1 %95, label %96, label %139

96:                                               ; preds = %94
  %97 = mul nsw i32 %.04, 4, !taffo.info !204, !taffo.constinfo !90
  %98 = add nsw i32 24, %.04, !taffo.info !242, !taffo.constinfo !90
  %99 = sext i32 %98 to i64, !taffo.info !242
  %100 = getelementptr inbounds i16, i16* %0, i64 %99, !taffo.info !74
  %101 = load i16, i16* %100, align 2, !taffo.info !74
  %102 = zext i16 %101 to i32, !taffo.info !74
  %103 = and i32 %102, 15, !taffo.constinfo !90
  %104 = add nsw i32 %97, 0, !taffo.info !204, !taffo.constinfo !90
  %105 = sext i32 %104 to i64, !taffo.info !204
  %106 = getelementptr inbounds [32 x i32], [32 x i32]* %3, i64 0, i64 %105
  store i32 %103, i32* %106, align 4
  %107 = add nsw i32 24, %.04, !taffo.info !242, !taffo.constinfo !90
  %108 = sext i32 %107 to i64, !taffo.info !242
  %109 = getelementptr inbounds i16, i16* %0, i64 %108, !taffo.info !74
  %110 = load i16, i16* %109, align 2, !taffo.info !74
  %111 = zext i16 %110 to i32, !taffo.info !74
  %112 = and i32 %111, 240, !taffo.constinfo !90
  %113 = ashr i32 %112, 4, !taffo.constinfo !90
  %114 = add nsw i32 %97, 1, !taffo.info !208, !taffo.constinfo !90
  %115 = sext i32 %114 to i64, !taffo.info !208
  %116 = getelementptr inbounds [32 x i32], [32 x i32]* %3, i64 0, i64 %115
  store i32 %113, i32* %116, align 4
  %117 = add nsw i32 24, %.04, !taffo.info !242, !taffo.constinfo !90
  %118 = sext i32 %117 to i64, !taffo.info !242
  %119 = getelementptr inbounds i16, i16* %0, i64 %118, !taffo.info !74
  %120 = load i16, i16* %119, align 2, !taffo.info !74
  %121 = zext i16 %120 to i32, !taffo.info !74
  %122 = and i32 %121, 3840, !taffo.constinfo !90
  %123 = ashr i32 %122, 8, !taffo.constinfo !90
  %124 = add nsw i32 %97, 2, !taffo.info !210, !taffo.constinfo !90
  %125 = sext i32 %124 to i64, !taffo.info !210
  %126 = getelementptr inbounds [32 x i32], [32 x i32]* %3, i64 0, i64 %125
  store i32 %123, i32* %126, align 4
  %127 = add nsw i32 24, %.04, !taffo.info !242, !taffo.constinfo !90
  %128 = sext i32 %127 to i64, !taffo.info !242
  %129 = getelementptr inbounds i16, i16* %0, i64 %128, !taffo.info !74
  %130 = load i16, i16* %129, align 2, !taffo.info !74
  %131 = zext i16 %130 to i32, !taffo.info !74
  %132 = and i32 %131, 61440, !taffo.constinfo !90
  %133 = ashr i32 %132, 12, !taffo.constinfo !90
  %134 = add nsw i32 %97, 3, !taffo.info !212, !taffo.constinfo !90
  %135 = sext i32 %134 to i64, !taffo.info !212
  %136 = getelementptr inbounds [32 x i32], [32 x i32]* %3, i64 0, i64 %135
  store i32 %133, i32* %136, align 4
  br label %137

137:                                              ; preds = %96
  %138 = add nsw i32 %.04, 1, !taffo.info !214, !taffo.constinfo !90
  br label %94, !llvm.loop !244

139:                                              ; preds = %94
  br label %140

140:                                              ; preds = %155, %139
  %.03 = phi i32 [ 0, %139 ], [ %156, %155 ], !taffo.info !217
  %141 = icmp slt i32 %.03, 32, !taffo.info !103
  br i1 %141, label %142, label %157

142:                                              ; preds = %140
  %143 = sext i32 %.03 to i64, !taffo.info !204
  %144 = getelementptr inbounds [32 x i32], [32 x i32]* %3, i64 0, i64 %143
  %145 = load i32, i32* %144, align 4
  %146 = icmp sgt i32 %145, 7, !taffo.info !103
  br i1 %146, label %147, label %154

147:                                              ; preds = %142
  %148 = sext i32 %.03 to i64, !taffo.info !204
  %149 = getelementptr inbounds [32 x i32], [32 x i32]* %3, i64 0, i64 %148
  %150 = load i32, i32* %149, align 4
  %151 = sub nsw i32 %150, 16, !taffo.constinfo !90
  %152 = sext i32 %.03 to i64, !taffo.info !204
  %153 = getelementptr inbounds [32 x i32], [32 x i32]* %3, i64 0, i64 %152
  store i32 %151, i32* %153, align 4
  br label %154

154:                                              ; preds = %147, %142
  br label %155

155:                                              ; preds = %154
  %156 = add nsw i32 %.03, 1, !taffo.info !208, !taffo.constinfo !90
  br label %140, !llvm.loop !245

157:                                              ; preds = %140
  br label %158

158:                                              ; preds = %225, %157
  %.02 = phi i32 [ 0, %157 ], [ %226, %225 ], !taffo.info !199
  %159 = icmp slt i32 %.02, 24, !taffo.info !103
  br i1 %159, label %160, label %227

160:                                              ; preds = %158
  br label %161

161:                                              ; preds = %222, %160
  %.0 = phi i32 [ 0, %160 ], [ %223, %222 ], !taffo.info !220
  %162 = icmp slt i32 %.0, 32, !taffo.info !103
  br i1 %162, label %163, label %224

163:                                              ; preds = %161
  %164 = mul nsw i32 32, %.02, !taffo.info !222, !taffo.constinfo !90
  %165 = add nsw i32 %164, %.0, !taffo.info !224
  %166 = add nsw i32 64, %165, !taffo.info !226, !taffo.constinfo !90
  %167 = sext i32 %166 to i64, !taffo.info !226
  %168 = getelementptr inbounds i16, i16* %0, i64 %167, !taffo.info !74
  %169 = load i16, i16* %168, align 2, !taffo.info !74
  %170 = zext i16 %169 to i32, !taffo.info !74
  %171 = and i32 %170, 64512, !taffo.constinfo !90
  %172 = ashr i32 %171, 10, !taffo.constinfo !90
  %173 = trunc i32 %172 to i16
  %174 = sext i32 %165 to i64, !taffo.info !224
  %175 = getelementptr inbounds [768 x i16], [768 x i16]* @params_offset, i64 0, i64 %174, !taffo.initweight !107, !taffo.info !1
  store i16 %173, i16* %175, align 2, !taffo.initweight !108, !taffo.info !1
  %176 = sext i32 %165 to i64, !taffo.info !224
  %177 = getelementptr inbounds [768 x i16], [768 x i16]* @params_offset, i64 0, i64 %176, !taffo.initweight !107, !taffo.info !1
  %178 = load i16, i16* %177, align 2, !taffo.initweight !108, !taffo.info !1
  %179 = sext i16 %178 to i32, !taffo.initweight !110, !taffo.info !1
  %180 = icmp sgt i32 %179, 31, !taffo.initweight !165, !taffo.info !103
  br i1 %180, label %181, label %190, !taffo.initweight !166, !taffo.info !1

181:                                              ; preds = %163
  %182 = sext i32 %165 to i64, !taffo.info !224
  %183 = getelementptr inbounds [768 x i16], [768 x i16]* @params_offset, i64 0, i64 %182, !taffo.initweight !107, !taffo.info !1
  %184 = load i16, i16* %183, align 2, !taffo.initweight !108, !taffo.info !1
  %185 = sext i16 %184 to i32, !taffo.initweight !110, !taffo.info !1
  %186 = sub nsw i32 %185, 64, !taffo.initweight !165, !taffo.info !246, !taffo.constinfo !90
  %187 = trunc i32 %186 to i16, !taffo.initweight !166, !taffo.info !248
  %188 = sext i32 %165 to i64, !taffo.info !224
  %189 = getelementptr inbounds [768 x i16], [768 x i16]* @params_offset, i64 0, i64 %188, !taffo.initweight !107, !taffo.info !1
  store i16 %187, i16* %189, align 2, !taffo.initweight !108, !taffo.info !1
  br label %190

190:                                              ; preds = %181, %163
  %191 = sext i32 %165 to i64, !taffo.info !224
  %192 = getelementptr inbounds [768 x i16], [768 x i16]* @params_offset, i64 0, i64 %191, !taffo.initweight !107, !taffo.info !1
  %193 = load i16, i16* %192, align 2, !taffo.initweight !108, !taffo.info !1
  %194 = sext i16 %193 to i32, !taffo.initweight !110, !taffo.info !1
  %195 = zext i8 %8 to i32
  %196 = shl i32 1, %195, !taffo.constinfo !90
  %197 = mul nsw i32 %194, %196, !taffo.initweight !165, !taffo.info !1
  %198 = trunc i32 %197 to i16, !taffo.initweight !166, !taffo.info !1
  %199 = sext i32 %165 to i64, !taffo.info !224
  %200 = getelementptr inbounds [768 x i16], [768 x i16]* @params_offset, i64 0, i64 %199, !taffo.initweight !107, !taffo.info !1
  store i16 %198, i16* %200, align 2, !taffo.initweight !108, !taffo.info !1
  %201 = sext i16 %.01 to i32, !taffo.info !74
  %202 = sext i32 %.02 to i64, !taffo.info !186
  %203 = getelementptr inbounds [24 x i32], [24 x i32]* %2, i64 0, i64 %202
  %204 = load i32, i32* %203, align 4
  %205 = zext i8 %20 to i32
  %206 = shl i32 %204, %205
  %207 = add nsw i32 %201, %206
  %208 = sext i32 %.0 to i64, !taffo.info !232
  %209 = getelementptr inbounds [32 x i32], [32 x i32]* %3, i64 0, i64 %208
  %210 = load i32, i32* %209, align 4
  %211 = zext i8 %14 to i32
  %212 = shl i32 %210, %211
  %213 = add nsw i32 %207, %212
  %214 = sext i32 %165 to i64, !taffo.info !224
  %215 = getelementptr inbounds [768 x i16], [768 x i16]* @params_offset, i64 0, i64 %214, !taffo.initweight !107, !taffo.info !1
  %216 = load i16, i16* %215, align 2, !taffo.initweight !108, !taffo.info !1
  %217 = sext i16 %216 to i32, !taffo.initweight !110, !taffo.info !1
  %218 = add nsw i32 %213, %217, !taffo.initweight !165, !taffo.info !1
  %219 = trunc i32 %218 to i16, !taffo.initweight !166, !taffo.info !1
  %220 = sext i32 %165 to i64, !taffo.info !224
  %221 = getelementptr inbounds [768 x i16], [768 x i16]* @params_offset, i64 0, i64 %220, !taffo.initweight !107, !taffo.info !1
  store i16 %219, i16* %221, align 2, !taffo.initweight !108, !taffo.info !1
  br label %222

222:                                              ; preds = %190
  %223 = add nsw i32 %.0, 1, !taffo.info !234, !taffo.constinfo !90
  br label %161, !llvm.loop !250

224:                                              ; preds = %161
  br label %225

225:                                              ; preds = %224
  %226 = add nsw i32 %.02, 1, !taffo.info !190, !taffo.constinfo !90
  br label %158, !llvm.loop !251

227:                                              ; preds = %158
  ret void
}

; Function Attrs: noinline uwtable mustprogress
define dso_local void @_Z25ExtractKtaPixelParametersPKt(i16* %0) #0 !taffo.initweight !98 !taffo.funinfo !100 {
  %2 = alloca [4 x i8], align 1
  %3 = getelementptr inbounds i16, i16* %0, i64 54, !taffo.info !74
  %4 = load i16, i16* %3, align 2, !taffo.info !74
  %5 = zext i16 %4 to i32, !taffo.info !74
  %6 = and i32 %5, 65280, !taffo.constinfo !90
  %7 = ashr i32 %6, 8, !taffo.constinfo !90
  %8 = trunc i32 %7 to i8
  %9 = sext i8 %8 to i32
  %10 = icmp sgt i32 %9, 127, !taffo.info !103
  br i1 %10, label %11, label %15

11:                                               ; preds = %1
  %12 = sext i8 %8 to i32
  %13 = sub nsw i32 %12, 256, !taffo.constinfo !90
  %14 = trunc i32 %13 to i8
  br label %15

15:                                               ; preds = %11, %1
  %.01 = phi i8 [ %14, %11 ], [ %8, %1 ]
  %16 = getelementptr inbounds [4 x i8], [4 x i8]* %2, i64 0, i64 0
  store i8 %.01, i8* %16, align 1
  %17 = getelementptr inbounds i16, i16* %0, i64 54, !taffo.info !74
  %18 = load i16, i16* %17, align 2, !taffo.info !74
  %19 = zext i16 %18 to i32, !taffo.info !74
  %20 = and i32 %19, 255, !taffo.constinfo !90
  %21 = trunc i32 %20 to i8
  %22 = sext i8 %21 to i32
  %23 = icmp sgt i32 %22, 127, !taffo.info !103
  br i1 %23, label %24, label %28

24:                                               ; preds = %15
  %25 = sext i8 %21 to i32
  %26 = sub nsw i32 %25, 256, !taffo.constinfo !90
  %27 = trunc i32 %26 to i8
  br label %28

28:                                               ; preds = %24, %15
  %.03 = phi i8 [ %27, %24 ], [ %21, %15 ]
  %29 = getelementptr inbounds [4 x i8], [4 x i8]* %2, i64 0, i64 2
  store i8 %.03, i8* %29, align 1
  %30 = getelementptr inbounds i16, i16* %0, i64 55, !taffo.info !74
  %31 = load i16, i16* %30, align 2, !taffo.info !74
  %32 = zext i16 %31 to i32, !taffo.info !74
  %33 = and i32 %32, 65280, !taffo.constinfo !90
  %34 = ashr i32 %33, 8, !taffo.constinfo !90
  %35 = trunc i32 %34 to i8
  %36 = sext i8 %35 to i32
  %37 = icmp sgt i32 %36, 127, !taffo.info !103
  br i1 %37, label %38, label %42

38:                                               ; preds = %28
  %39 = sext i8 %35 to i32
  %40 = sub nsw i32 %39, 256, !taffo.constinfo !90
  %41 = trunc i32 %40 to i8
  br label %42

42:                                               ; preds = %38, %28
  %.02 = phi i8 [ %41, %38 ], [ %35, %28 ]
  %43 = getelementptr inbounds [4 x i8], [4 x i8]* %2, i64 0, i64 1
  store i8 %.02, i8* %43, align 1
  %44 = getelementptr inbounds i16, i16* %0, i64 55, !taffo.info !74
  %45 = load i16, i16* %44, align 2, !taffo.info !74
  %46 = zext i16 %45 to i32, !taffo.info !74
  %47 = and i32 %46, 255, !taffo.constinfo !90
  %48 = trunc i32 %47 to i8
  %49 = sext i8 %48 to i32
  %50 = icmp sgt i32 %49, 127, !taffo.info !103
  br i1 %50, label %51, label %55

51:                                               ; preds = %42
  %52 = sext i8 %48 to i32
  %53 = sub nsw i32 %52, 256, !taffo.constinfo !90
  %54 = trunc i32 %53 to i8
  br label %55

55:                                               ; preds = %51, %42
  %.04 = phi i8 [ %54, %51 ], [ %48, %42 ]
  %56 = getelementptr inbounds [4 x i8], [4 x i8]* %2, i64 0, i64 3
  store i8 %.04, i8* %56, align 1
  %57 = getelementptr inbounds i16, i16* %0, i64 56, !taffo.info !74
  %58 = load i16, i16* %57, align 2, !taffo.info !74
  %59 = zext i16 %58 to i32, !taffo.info !74
  %60 = and i32 %59, 240, !taffo.constinfo !90
  %61 = ashr i32 %60, 4, !taffo.constinfo !90
  %62 = add nsw i32 %61, 8, !taffo.constinfo !90
  %63 = trunc i32 %62 to i8
  %64 = getelementptr inbounds i16, i16* %0, i64 56, !taffo.info !74
  %65 = load i16, i16* %64, align 2, !taffo.info !74
  %66 = zext i16 %65 to i32, !taffo.info !74
  %67 = and i32 %66, 15, !taffo.constinfo !90
  %68 = trunc i32 %67 to i8
  br label %69

69:                                               ; preds = %127, %55
  %.05 = phi i32 [ 0, %55 ], [ %128, %127 ], !taffo.info !199
  %70 = icmp slt i32 %.05, 24, !taffo.info !103
  br i1 %70, label %71, label %129

71:                                               ; preds = %69
  br label %72

72:                                               ; preds = %124, %71
  %.0 = phi i32 [ 0, %71 ], [ %125, %124 ], !taffo.info !220
  %73 = icmp slt i32 %.0, 32, !taffo.info !103
  br i1 %73, label %74, label %126

74:                                               ; preds = %72
  %75 = mul nsw i32 32, %.05, !taffo.info !222, !taffo.constinfo !90
  %76 = add nsw i32 %75, %.0, !taffo.info !224
  %77 = sdiv i32 %76, 32, !taffo.info !252, !taffo.constinfo !90
  %78 = sdiv i32 %76, 64, !taffo.info !254, !taffo.constinfo !90
  %79 = mul nsw i32 %78, 2, !taffo.info !252, !taffo.constinfo !90
  %80 = sub nsw i32 %77, %79, !taffo.info !256
  %81 = mul nsw i32 2, %80, !taffo.info !258, !taffo.constinfo !90
  %82 = srem i32 %76, 2, !taffo.info !103, !taffo.constinfo !90
  %83 = add nsw i32 %81, %82, !taffo.info !260
  %84 = trunc i32 %83 to i8, !taffo.info !262
  %85 = add nsw i32 64, %76, !taffo.info !226, !taffo.constinfo !90
  %86 = sext i32 %85 to i64, !taffo.info !226
  %87 = getelementptr inbounds i16, i16* %0, i64 %86, !taffo.info !74
  %88 = load i16, i16* %87, align 2, !taffo.info !74
  %89 = zext i16 %88 to i32, !taffo.info !74
  %90 = and i32 %89, 14, !taffo.constinfo !90
  %91 = ashr i32 %90, 1, !taffo.info !224, !taffo.constinfo !90
  %92 = shl i32 %91, 13, !taffo.info !224
  %93 = sext i32 %76 to i64, !taffo.info !224
  %s19_13fixp9 = getelementptr inbounds [768 x i32], [768 x i32]* @params_kta.fixp, i64 0, i64 %93, !taffo.info !35
  store i32 %92, i32* %s19_13fixp9, align 4, !taffo.info !264
  %94 = sext i32 %76 to i64, !taffo.info !224
  %s19_13fixp8 = getelementptr inbounds [768 x i32], [768 x i32]* @params_kta.fixp, i64 0, i64 %94, !taffo.info !35
  %s19_13fixp14 = load i32, i32* %s19_13fixp8, align 4, !taffo.info !35
  %95 = icmp sgt i32 %s19_13fixp14, 24576, !taffo.info !265
  br i1 %95, label %96, label %99, !taffo.initweight !165, !taffo.info !264

96:                                               ; preds = %74
  %97 = sext i32 %76 to i64, !taffo.info !224
  %s19_13fixp7 = getelementptr inbounds [768 x i32], [768 x i32]* @params_kta.fixp, i64 0, i64 %97, !taffo.info !35
  %s19_13fixp13 = load i32, i32* %s19_13fixp7, align 4, !taffo.info !35
  %s19_13fixp17 = sub i32 %s19_13fixp13, 65536, !taffo.info !266, !taffo.constinfo !139
  %98 = sext i32 %76 to i64, !taffo.info !224
  %s19_13fixp6 = getelementptr inbounds [768 x i32], [768 x i32]* @params_kta.fixp, i64 0, i64 %98, !taffo.info !35
  store i32 %s19_13fixp17, i32* %s19_13fixp6, align 4, !taffo.info !264
  br label %99

99:                                               ; preds = %74, %96
  %100 = sext i32 %76 to i64, !taffo.info !224
  %s19_13fixp5 = getelementptr inbounds [768 x i32], [768 x i32]* @params_kta.fixp, i64 0, i64 %100, !taffo.info !35
  %s19_13fixp12 = load i32, i32* %s19_13fixp5, align 4, !taffo.info !35
  %101 = zext i8 %68 to i32
  %102 = shl i32 1, %101, !taffo.constinfo !90
  %103 = sext i32 %s19_13fixp12 to i64, !taffo.info !35
  %104 = sext i32 %102 to i64
  %105 = mul i64 %103, %104, !taffo.info !268
  %s19_13fixp16 = trunc i64 %105 to i32, !taffo.info !35
  %106 = sext i32 %76 to i64, !taffo.info !224
  %s19_13fixp4 = getelementptr inbounds [768 x i32], [768 x i32]* @params_kta.fixp, i64 0, i64 %106, !taffo.info !35
  store i32 %s19_13fixp16, i32* %s19_13fixp4, align 4, !taffo.info !264
  %107 = zext i8 %84 to i64, !taffo.info !262
  %108 = getelementptr inbounds [4 x i8], [4 x i8]* %2, i64 0, i64 %107
  %109 = load i8, i8* %108, align 1
  %110 = sext i8 %109 to i32
  %111 = sext i32 %76 to i64, !taffo.info !224
  %s19_13fixp3 = getelementptr inbounds [768 x i32], [768 x i32]* @params_kta.fixp, i64 0, i64 %111, !taffo.info !35
  %s19_13fixp11 = load i32, i32* %s19_13fixp3, align 4, !taffo.info !35
  %112 = shl i32 %110, 13
  %s19_13fixp15 = add i32 %112, %s19_13fixp11, !taffo.info !35
  %113 = sext i32 %76 to i64, !taffo.info !224
  %s19_13fixp2 = getelementptr inbounds [768 x i32], [768 x i32]* @params_kta.fixp, i64 0, i64 %113, !taffo.info !35
  store i32 %s19_13fixp15, i32* %s19_13fixp2, align 4, !taffo.info !264
  %114 = sext i32 %76 to i64, !taffo.info !224
  %s19_13fixp1 = getelementptr inbounds [768 x i32], [768 x i32]* @params_kta.fixp, i64 0, i64 %114, !taffo.info !35
  %s19_13fixp10 = load i32, i32* %s19_13fixp1, align 4, !taffo.info !35
  %115 = uitofp i8 %63 to double
  %116 = call double @_ZSt3powIidEN9__gnu_cxx11__promote_2IT_T0_NS0_9__promoteIS2_Xsr3std12__is_integerIS2_EE7__valueEE6__typeENS4_IS3_Xsr3std12__is_integerIS3_EE7__valueEE6__typeEE6__typeES2_S3_(i32 2, double %115), !taffo.constinfo !95
  %117 = fmul double 8.192000e+03, %116, !taffo.info !35
  %118 = fptosi double %117 to i32, !taffo.info !35
  %119 = sext i32 %s19_13fixp10 to i64, !taffo.info !35
  %120 = shl i64 %119, 13, !taffo.info !35
  %121 = sext i32 %118 to i64, !taffo.info !35
  %122 = sdiv i64 %120, %121, !taffo.info !268
  %s19_13fixp18 = trunc i64 %122 to i32, !taffo.info !35
  %123 = sext i32 %76 to i64, !taffo.info !224
  %s19_13fixp = getelementptr inbounds [768 x i32], [768 x i32]* @params_kta.fixp, i64 0, i64 %123, !taffo.info !35
  store i32 %s19_13fixp18, i32* %s19_13fixp, align 4, !taffo.info !264
  br label %124

124:                                              ; preds = %99
  %125 = add nsw i32 %.0, 1, !taffo.info !234, !taffo.constinfo !90
  br label %72, !llvm.loop !270

126:                                              ; preds = %72
  br label %127

127:                                              ; preds = %126
  %128 = add nsw i32 %.05, 1, !taffo.info !190, !taffo.constinfo !90
  br label %69, !llvm.loop !271

129:                                              ; preds = %69
  ret void
}

; Function Attrs: noinline uwtable mustprogress
define dso_local void @_Z24ExtractKvPixelParametersPKt(i16* %0) #0 !taffo.initweight !98 !taffo.funinfo !100 {
  %2 = alloca [4 x i8], align 1
  %3 = getelementptr inbounds i16, i16* %0, i64 52, !taffo.info !74
  %4 = load i16, i16* %3, align 2, !taffo.info !74
  %5 = zext i16 %4 to i32, !taffo.info !74
  %6 = and i32 %5, 61440, !taffo.constinfo !90
  %7 = ashr i32 %6, 12, !taffo.constinfo !90
  %8 = trunc i32 %7 to i8
  %9 = sext i8 %8 to i32
  %10 = icmp sgt i32 %9, 7, !taffo.info !103
  br i1 %10, label %11, label %15

11:                                               ; preds = %1
  %12 = sext i8 %8 to i32
  %13 = sub nsw i32 %12, 16, !taffo.constinfo !90
  %14 = trunc i32 %13 to i8
  br label %15

15:                                               ; preds = %11, %1
  %.01 = phi i8 [ %14, %11 ], [ %8, %1 ]
  %16 = getelementptr inbounds [4 x i8], [4 x i8]* %2, i64 0, i64 0
  store i8 %.01, i8* %16, align 1
  %17 = getelementptr inbounds i16, i16* %0, i64 52, !taffo.info !74
  %18 = load i16, i16* %17, align 2, !taffo.info !74
  %19 = zext i16 %18 to i32, !taffo.info !74
  %20 = and i32 %19, 3840, !taffo.constinfo !90
  %21 = ashr i32 %20, 8, !taffo.constinfo !90
  %22 = trunc i32 %21 to i8
  %23 = sext i8 %22 to i32
  %24 = icmp sgt i32 %23, 7, !taffo.info !103
  br i1 %24, label %25, label %29

25:                                               ; preds = %15
  %26 = sext i8 %22 to i32
  %27 = sub nsw i32 %26, 16, !taffo.constinfo !90
  %28 = trunc i32 %27 to i8
  br label %29

29:                                               ; preds = %25, %15
  %.03 = phi i8 [ %28, %25 ], [ %22, %15 ]
  %30 = getelementptr inbounds [4 x i8], [4 x i8]* %2, i64 0, i64 2
  store i8 %.03, i8* %30, align 1
  %31 = getelementptr inbounds i16, i16* %0, i64 52, !taffo.info !74
  %32 = load i16, i16* %31, align 2, !taffo.info !74
  %33 = zext i16 %32 to i32, !taffo.info !74
  %34 = and i32 %33, 240, !taffo.constinfo !90
  %35 = ashr i32 %34, 4, !taffo.constinfo !90
  %36 = trunc i32 %35 to i8
  %37 = sext i8 %36 to i32
  %38 = icmp sgt i32 %37, 7, !taffo.info !103
  br i1 %38, label %39, label %43

39:                                               ; preds = %29
  %40 = sext i8 %36 to i32
  %41 = sub nsw i32 %40, 16, !taffo.constinfo !90
  %42 = trunc i32 %41 to i8
  br label %43

43:                                               ; preds = %39, %29
  %.02 = phi i8 [ %42, %39 ], [ %36, %29 ]
  %44 = getelementptr inbounds [4 x i8], [4 x i8]* %2, i64 0, i64 1
  store i8 %.02, i8* %44, align 1
  %45 = getelementptr inbounds i16, i16* %0, i64 52, !taffo.info !74
  %46 = load i16, i16* %45, align 2, !taffo.info !74
  %47 = zext i16 %46 to i32, !taffo.info !74
  %48 = and i32 %47, 15, !taffo.constinfo !90
  %49 = trunc i32 %48 to i8
  %50 = sext i8 %49 to i32
  %51 = icmp sgt i32 %50, 7, !taffo.info !103
  br i1 %51, label %52, label %56

52:                                               ; preds = %43
  %53 = sext i8 %49 to i32
  %54 = sub nsw i32 %53, 16, !taffo.constinfo !90
  %55 = trunc i32 %54 to i8
  br label %56

56:                                               ; preds = %52, %43
  %.04 = phi i8 [ %55, %52 ], [ %49, %43 ]
  %57 = getelementptr inbounds [4 x i8], [4 x i8]* %2, i64 0, i64 3
  store i8 %.04, i8* %57, align 1
  %58 = getelementptr inbounds i16, i16* %0, i64 56, !taffo.info !74
  %59 = load i16, i16* %58, align 2, !taffo.info !74
  %60 = zext i16 %59 to i32, !taffo.info !74
  %61 = and i32 %60, 3840, !taffo.constinfo !90
  %62 = ashr i32 %61, 8, !taffo.constinfo !90
  %63 = trunc i32 %62 to i8
  br label %64

64:                                               ; preds = %99, %56
  %.05 = phi i32 [ 0, %56 ], [ %100, %99 ], !taffo.info !199
  %65 = icmp slt i32 %.05, 24, !taffo.info !103
  br i1 %65, label %66, label %101

66:                                               ; preds = %64
  br label %67

67:                                               ; preds = %96, %66
  %.0 = phi i32 [ 0, %66 ], [ %97, %96 ], !taffo.info !220
  %68 = icmp slt i32 %.0, 32, !taffo.info !103
  br i1 %68, label %69, label %98

69:                                               ; preds = %67
  %70 = mul nsw i32 32, %.05, !taffo.info !222, !taffo.constinfo !90
  %71 = add nsw i32 %70, %.0, !taffo.info !224
  %72 = sdiv i32 %71, 32, !taffo.info !252, !taffo.constinfo !90
  %73 = sdiv i32 %71, 64, !taffo.info !254, !taffo.constinfo !90
  %74 = mul nsw i32 %73, 2, !taffo.info !252, !taffo.constinfo !90
  %75 = sub nsw i32 %72, %74, !taffo.info !256
  %76 = mul nsw i32 2, %75, !taffo.info !258, !taffo.constinfo !90
  %77 = srem i32 %71, 2, !taffo.info !103, !taffo.constinfo !90
  %78 = add nsw i32 %76, %77, !taffo.info !260
  %79 = trunc i32 %78 to i8, !taffo.info !262
  %80 = zext i8 %79 to i64, !taffo.info !262
  %81 = getelementptr inbounds [4 x i8], [4 x i8]* %2, i64 0, i64 %80
  %82 = load i8, i8* %81, align 1
  %83 = sext i8 %82 to i32, !taffo.info !224
  %84 = shl i32 %83, 27, !taffo.info !224
  %85 = sext i32 %71 to i64, !taffo.info !224
  %s5_27fixp2 = getelementptr inbounds [768 x i32], [768 x i32]* @params_kv.fixp, i64 0, i64 %85, !taffo.info !38
  store i32 %84, i32* %s5_27fixp2, align 4, !taffo.info !272
  %86 = sext i32 %71 to i64, !taffo.info !224
  %s5_27fixp1 = getelementptr inbounds [768 x i32], [768 x i32]* @params_kv.fixp, i64 0, i64 %86, !taffo.info !38
  %s5_27fixp3 = load i32, i32* %s5_27fixp1, align 4, !taffo.info !38
  %87 = uitofp i8 %63 to double
  %88 = call double @_ZSt3powIidEN9__gnu_cxx11__promote_2IT_T0_NS0_9__promoteIS2_Xsr3std12__is_integerIS2_EE7__valueEE6__typeENS4_IS3_Xsr3std12__is_integerIS3_EE7__valueEE6__typeEE6__typeES2_S3_(i32 2, double %87), !taffo.constinfo !95
  %89 = fmul double 0x41A0000000000000, %88, !taffo.info !38
  %90 = fptosi double %89 to i32, !taffo.info !38
  %91 = sext i32 %s5_27fixp3 to i64, !taffo.info !38
  %92 = shl i64 %91, 27, !taffo.info !38
  %93 = sext i32 %90 to i64, !taffo.info !38
  %94 = sdiv i64 %92, %93, !taffo.info !273
  %s5_27fixp4 = trunc i64 %94 to i32, !taffo.info !38
  %95 = sext i32 %71 to i64, !taffo.info !224
  %s5_27fixp = getelementptr inbounds [768 x i32], [768 x i32]* @params_kv.fixp, i64 0, i64 %95, !taffo.info !38
  store i32 %s5_27fixp4, i32* %s5_27fixp, align 4, !taffo.info !272
  br label %96

96:                                               ; preds = %69
  %97 = add nsw i32 %.0, 1, !taffo.info !234, !taffo.constinfo !90
  br label %67, !llvm.loop !275

98:                                               ; preds = %67
  br label %99

99:                                               ; preds = %98
  %100 = add nsw i32 %.05, 1, !taffo.info !190, !taffo.constinfo !90
  br label %64, !llvm.loop !276

101:                                              ; preds = %64
  ret void
}

; Function Attrs: noinline uwtable mustprogress
define dso_local void @_Z19ExtractCPParametersPKt(i16* %0) #0 !taffo.initweight !98 !taffo.funinfo !100 {
  %s16_16fixp = alloca [2 x i32], align 4, !taffo.info !277
  %2 = alloca [2 x i16], align 2
  %3 = getelementptr inbounds i16, i16* %0, i64 32, !taffo.info !74
  %4 = load i16, i16* %3, align 2, !taffo.info !74
  %5 = zext i16 %4 to i32, !taffo.info !74
  %6 = and i32 %5, 61440, !taffo.constinfo !90
  %7 = ashr i32 %6, 12, !taffo.constinfo !90
  %8 = add nsw i32 %7, 27, !taffo.constinfo !90
  %9 = trunc i32 %8 to i8
  %10 = getelementptr inbounds i16, i16* %0, i64 58, !taffo.info !74
  %11 = load i16, i16* %10, align 2, !taffo.info !74
  %12 = zext i16 %11 to i32, !taffo.info !74
  %13 = and i32 %12, 1023, !taffo.constinfo !90
  %14 = trunc i32 %13 to i16
  %15 = getelementptr inbounds [2 x i16], [2 x i16]* %2, i64 0, i64 0
  store i16 %14, i16* %15, align 2
  %16 = getelementptr inbounds [2 x i16], [2 x i16]* %2, i64 0, i64 0
  %17 = load i16, i16* %16, align 2
  %18 = sext i16 %17 to i32
  %19 = icmp sgt i32 %18, 511, !taffo.info !103
  br i1 %19, label %20, label %27

20:                                               ; preds = %1
  %21 = getelementptr inbounds [2 x i16], [2 x i16]* %2, i64 0, i64 0
  %22 = load i16, i16* %21, align 2
  %23 = sext i16 %22 to i32
  %24 = sub nsw i32 %23, 1024, !taffo.constinfo !90
  %25 = trunc i32 %24 to i16
  %26 = getelementptr inbounds [2 x i16], [2 x i16]* %2, i64 0, i64 0
  store i16 %25, i16* %26, align 2
  br label %27

27:                                               ; preds = %20, %1
  %28 = getelementptr inbounds i16, i16* %0, i64 58, !taffo.info !74
  %29 = load i16, i16* %28, align 2, !taffo.info !74
  %30 = zext i16 %29 to i32, !taffo.info !74
  %31 = and i32 %30, 64512, !taffo.constinfo !90
  %32 = ashr i32 %31, 10, !taffo.constinfo !90
  %33 = trunc i32 %32 to i16
  %34 = getelementptr inbounds [2 x i16], [2 x i16]* %2, i64 0, i64 1
  store i16 %33, i16* %34, align 2
  %35 = getelementptr inbounds [2 x i16], [2 x i16]* %2, i64 0, i64 1
  %36 = load i16, i16* %35, align 2
  %37 = sext i16 %36 to i32
  %38 = icmp sgt i32 %37, 31, !taffo.info !103
  br i1 %38, label %39, label %46

39:                                               ; preds = %27
  %40 = getelementptr inbounds [2 x i16], [2 x i16]* %2, i64 0, i64 1
  %41 = load i16, i16* %40, align 2
  %42 = sext i16 %41 to i32
  %43 = sub nsw i32 %42, 64, !taffo.constinfo !90
  %44 = trunc i32 %43 to i16
  %45 = getelementptr inbounds [2 x i16], [2 x i16]* %2, i64 0, i64 1
  store i16 %44, i16* %45, align 2
  br label %46

46:                                               ; preds = %39, %27
  %47 = getelementptr inbounds [2 x i16], [2 x i16]* %2, i64 0, i64 1
  %48 = load i16, i16* %47, align 2
  %49 = sext i16 %48 to i32
  %50 = getelementptr inbounds [2 x i16], [2 x i16]* %2, i64 0, i64 0
  %51 = load i16, i16* %50, align 2
  %52 = sext i16 %51 to i32
  %53 = add nsw i32 %49, %52
  %54 = trunc i32 %53 to i16
  %55 = getelementptr inbounds [2 x i16], [2 x i16]* %2, i64 0, i64 1
  store i16 %54, i16* %55, align 2
  %56 = getelementptr inbounds i16, i16* %0, i64 57, !taffo.info !74
  %57 = load i16, i16* %56, align 2, !taffo.info !74
  %58 = zext i16 %57 to i32, !taffo.info !74
  %59 = and i32 %58, 1023, !taffo.info !277, !taffo.constinfo !90
  %60 = shl i32 %59, 16, !taffo.info !277
  %s16_16fixp19 = getelementptr inbounds [2 x i32], [2 x i32]* %s16_16fixp, i64 0, i64 0, !taffo.info !277
  store i32 %60, i32* %s16_16fixp19, align 4, !taffo.info !280
  %s16_16fixp18 = getelementptr inbounds [2 x i32], [2 x i32]* %s16_16fixp, i64 0, i64 0, !taffo.info !277
  %s16_16fixp30 = load i32, i32* %s16_16fixp18, align 4, !taffo.info !281
  %61 = icmp sgt i32 %s16_16fixp30, 33488896, !taffo.info !175
  br i1 %61, label %62, label %65, !taffo.initweight !165, !taffo.info !280

62:                                               ; preds = %46
  %s16_16fixp17 = getelementptr inbounds [2 x i32], [2 x i32]* %s16_16fixp, i64 0, i64 0, !taffo.info !277
  %s16_16fixp29 = load i32, i32* %s16_16fixp17, align 4, !taffo.info !281
  %63 = shl i32 %s16_16fixp29, 4, !taffo.info !281
  %s12_20fixp32 = sub i32 %63, 1073741824, !taffo.info !282, !taffo.constinfo !128
  %s16_16fixp16 = getelementptr inbounds [2 x i32], [2 x i32]* %s16_16fixp, i64 0, i64 0, !taffo.info !277
  %64 = ashr i32 %s12_20fixp32, 4, !taffo.info !282, !taffo.constinfo !128
  store i32 %64, i32* %s16_16fixp16, align 4, !taffo.info !280
  br label %65

65:                                               ; preds = %46, %62
  %s16_16fixp15 = getelementptr inbounds [2 x i32], [2 x i32]* %s16_16fixp, i64 0, i64 0, !taffo.info !277
  %s16_16fixp28 = load i32, i32* %s16_16fixp15, align 4, !taffo.info !284
  %s12_20fixp31 = shl i32 %s16_16fixp28, 4, !taffo.info !284
  %66 = uitofp i8 %9 to double
  %67 = call double @_ZSt3powIidEN9__gnu_cxx11__promote_2IT_T0_NS0_9__promoteIS2_Xsr3std12__is_integerIS2_EE7__valueEE6__typeENS4_IS3_Xsr3std12__is_integerIS3_EE7__valueEE6__typeEE6__typeES2_S3_(i32 2, double %66), !taffo.constinfo !95
  %68 = fmul double 0x4130000000000000, %67, !taffo.info !281
  %69 = fptosi double %68 to i32, !taffo.info !281
  %70 = sext i32 %s12_20fixp31 to i64, !taffo.info !284
  %71 = shl i64 %70, 20, !taffo.info !284
  %72 = sext i32 %69 to i64, !taffo.info !281
  %73 = sdiv i64 %71, %72, !taffo.info !286
  %s12_20fixp34 = trunc i64 %73 to i32, !taffo.info !281
  %s16_16fixp14 = getelementptr inbounds [2 x i32], [2 x i32]* %s16_16fixp, i64 0, i64 0, !taffo.info !277
  %74 = ashr i32 %s12_20fixp34, 4, !taffo.info !281
  store i32 %74, i32* %s16_16fixp14, align 4, !taffo.info !280
  %75 = getelementptr inbounds i16, i16* %0, i64 57, !taffo.info !74
  %76 = load i16, i16* %75, align 2, !taffo.info !74
  %77 = zext i16 %76 to i32, !taffo.info !74
  %78 = and i32 %77, 64512, !taffo.constinfo !90
  %79 = ashr i32 %78, 10, !taffo.info !277, !taffo.constinfo !90
  %80 = shl i32 %79, 16, !taffo.info !277
  %s16_16fixp13 = getelementptr inbounds [2 x i32], [2 x i32]* %s16_16fixp, i64 0, i64 1, !taffo.info !277
  store i32 %80, i32* %s16_16fixp13, align 4, !taffo.info !280
  %s16_16fixp12 = getelementptr inbounds [2 x i32], [2 x i32]* %s16_16fixp, i64 0, i64 1, !taffo.info !277
  %s16_16fixp27 = load i32, i32* %s16_16fixp12, align 4, !taffo.info !284
  %81 = icmp sgt i32 %s16_16fixp27, 2031616, !taffo.info !175
  br i1 %81, label %82, label %85, !taffo.initweight !165, !taffo.info !280

82:                                               ; preds = %65
  %s16_16fixp11 = getelementptr inbounds [2 x i32], [2 x i32]* %s16_16fixp, i64 0, i64 1, !taffo.info !277
  %s16_16fixp26 = load i32, i32* %s16_16fixp11, align 4, !taffo.info !284
  %83 = shl i32 %s16_16fixp26, 4, !taffo.info !284
  %s12_20fixp = sub i32 %83, 67108864, !taffo.info !287, !taffo.constinfo !115
  %s16_16fixp10 = getelementptr inbounds [2 x i32], [2 x i32]* %s16_16fixp, i64 0, i64 1, !taffo.info !277
  %84 = ashr i32 %s12_20fixp, 4, !taffo.info !287, !taffo.constinfo !115
  store i32 %84, i32* %s16_16fixp10, align 4, !taffo.info !280
  br label %85

85:                                               ; preds = %65, %82
  %s16_16fixp9 = getelementptr inbounds [2 x i32], [2 x i32]* %s16_16fixp, i64 0, i64 1, !taffo.info !277
  %s16_16fixp25 = load i32, i32* %s16_16fixp9, align 4, !taffo.info !289
  %86 = sext i32 %s16_16fixp25 to i64, !taffo.info !289
  %87 = sdiv i64 %86, 128, !taffo.info !291, !taffo.constinfo !294
  %88 = shl i64 %87, 11, !taffo.info !291, !taffo.constinfo !294
  %s5_27fixp = trunc i64 %88 to i32, !taffo.info !297
  %s5_27fixp33 = add i32 134217728, %s5_27fixp, !taffo.info !298, !taffo.constinfo !300
  %s16_16fixp8 = getelementptr inbounds [2 x i32], [2 x i32]* %s16_16fixp, i64 0, i64 0, !taffo.info !277
  %s16_16fixp24 = load i32, i32* %s16_16fixp8, align 4, !taffo.info !289
  %89 = sext i32 %s5_27fixp33 to i64, !taffo.info !298
  %90 = sext i32 %s16_16fixp24 to i64, !taffo.info !289
  %91 = mul i64 %89, %90, !taffo.info !303
  %92 = ashr i64 %91, 27, !taffo.info !303
  %s16_16fixp35 = trunc i64 %92 to i32, !taffo.info !277
  %s16_16fixp7 = getelementptr inbounds [2 x i32], [2 x i32]* %s16_16fixp, i64 0, i64 1, !taffo.info !277
  store i32 %s16_16fixp35, i32* %s16_16fixp7, align 4, !taffo.info !280
  %93 = getelementptr inbounds i16, i16* %0, i64 59, !taffo.info !74
  %94 = load i16, i16* %93, align 2, !taffo.info !74
  %95 = zext i16 %94 to i32, !taffo.info !74
  %96 = and i32 %95, 255, !taffo.constinfo !90
  %97 = sitofp i32 %96 to float
  %98 = fcmp ogt float %97, 1.270000e+02, !taffo.initweight !108, !taffo.info !109
  br i1 %98, label %99, label %103, !taffo.initweight !110, !taffo.info !146

99:                                               ; preds = %85
  %100 = shl i32 %96, 23, !taffo.constinfo !90
  %s9_23fixp = sub i32 %100, -2147483648, !taffo.info !148, !taffo.constinfo !149
  %101 = sitofp i32 %s9_23fixp to float, !taffo.info !148
  %102 = fdiv float %101, 0x4160000000000000, !taffo.info !148, !taffo.constinfo !149
  br label %103

103:                                              ; preds = %85, %99
  %.0 = phi float [ %102, %99 ], [ %97, %85 ]
  %104 = getelementptr inbounds i16, i16* %0, i64 56, !taffo.info !74
  %105 = load i16, i16* %104, align 2, !taffo.info !74
  %106 = zext i16 %105 to i32, !taffo.info !74
  %107 = and i32 %106, 240, !taffo.constinfo !90
  %108 = ashr i32 %107, 4, !taffo.constinfo !90
  %109 = add nsw i32 %108, 8, !taffo.constinfo !90
  %110 = trunc i32 %109 to i8
  %111 = fmul float 0x4160000000000000, %.0, !taffo.info !148
  %s9_23fixp2 = fptosi float %111 to i32, !taffo.info !148
  %112 = uitofp i8 %110 to double
  %113 = call double @_ZSt3powIidEN9__gnu_cxx11__promote_2IT_T0_NS0_9__promoteIS2_Xsr3std12__is_integerIS2_EE7__valueEE6__typeENS4_IS3_Xsr3std12__is_integerIS3_EE7__valueEE6__typeEE6__typeES2_S3_(i32 2, double %112), !taffo.constinfo !95
  %114 = fmul double 0x4160000000000000, %113, !taffo.info !148
  %115 = fptosi double %114 to i32, !taffo.info !148
  %116 = sext i32 %s9_23fixp2 to i64, !taffo.info !148
  %117 = shl i64 %116, 23, !taffo.info !148
  %118 = sext i32 %115 to i64, !taffo.info !148
  %119 = sdiv i64 %117, %118, !taffo.info !152
  %s9_23fixp20 = trunc i64 %119 to i32, !taffo.info !148
  %120 = shl i32 %s9_23fixp20, 1, !taffo.info !148
  store i32 %120, i32* @params_cpKta.fixp, align 4, !taffo.info !305, !taffo.constinfo !90
  %121 = getelementptr inbounds i16, i16* %0, i64 59, !taffo.info !74
  %122 = load i16, i16* %121, align 2, !taffo.info !74
  %123 = zext i16 %122 to i32, !taffo.info !74
  %124 = and i32 %123, 65280, !taffo.constinfo !90
  %125 = ashr i32 %124, 8, !taffo.constinfo !90
  %126 = sitofp i32 %125 to float
  %127 = fcmp ogt float %126, 1.270000e+02, !taffo.initweight !108, !taffo.info !109
  br i1 %127, label %128, label %132, !taffo.initweight !110, !taffo.info !146

128:                                              ; preds = %103
  %129 = shl i32 %125, 23, !taffo.constinfo !90
  %s9_23fixp4 = sub i32 %129, -2147483648, !taffo.info !148, !taffo.constinfo !149
  %130 = sitofp i32 %s9_23fixp4 to float, !taffo.info !148
  %131 = fdiv float %130, 0x4160000000000000, !taffo.info !148, !taffo.constinfo !149
  br label %132

132:                                              ; preds = %103, %128
  %.01 = phi float [ %131, %128 ], [ %126, %103 ]
  %133 = getelementptr inbounds i16, i16* %0, i64 56, !taffo.info !74
  %134 = load i16, i16* %133, align 2, !taffo.info !74
  %135 = zext i16 %134 to i32, !taffo.info !74
  %136 = and i32 %135, 3840, !taffo.constinfo !90
  %137 = ashr i32 %136, 8, !taffo.constinfo !90
  %138 = trunc i32 %137 to i8
  %139 = fmul float 0x4160000000000000, %.01, !taffo.info !148
  %s9_23fixp3 = fptosi float %139 to i32, !taffo.info !148
  %140 = uitofp i8 %138 to double
  %141 = call double @_ZSt3powIidEN9__gnu_cxx11__promote_2IT_T0_NS0_9__promoteIS2_Xsr3std12__is_integerIS2_EE7__valueEE6__typeENS4_IS3_Xsr3std12__is_integerIS3_EE7__valueEE6__typeEE6__typeES2_S3_(i32 2, double %140), !taffo.constinfo !95
  %142 = fmul double 0x4160000000000000, %141, !taffo.info !148
  %143 = fptosi double %142 to i32, !taffo.info !148
  %144 = sext i32 %s9_23fixp3 to i64, !taffo.info !148
  %145 = shl i64 %144, 23, !taffo.info !148
  %146 = sext i32 %143 to i64, !taffo.info !148
  %147 = sdiv i64 %145, %146, !taffo.info !152
  %s9_23fixp21 = trunc i64 %147 to i32, !taffo.info !148
  store i32 %s9_23fixp21, i32* @params_cpKv.fixp, align 4, !taffo.info !306, !taffo.constinfo !90
  %s16_16fixp6 = getelementptr inbounds [2 x i32], [2 x i32]* %s16_16fixp, i64 0, i64 0, !taffo.info !277
  %s16_16fixp23 = load i32, i32* %s16_16fixp6, align 4, !taffo.info !277
  %148 = sitofp i32 %s16_16fixp23 to float, !taffo.info !277
  %149 = fdiv float %148, 6.553600e+04, !taffo.info !277
  store float %149, float* getelementptr inbounds ([2 x float], [2 x float]* @params_cpAlpha, i64 0, i64 0), align 4, !taffo.info !307, !taffo.constinfo !90
  %s16_16fixp5 = getelementptr inbounds [2 x i32], [2 x i32]* %s16_16fixp, i64 0, i64 1, !taffo.info !277
  %s16_16fixp22 = load i32, i32* %s16_16fixp5, align 4, !taffo.info !277
  %150 = sitofp i32 %s16_16fixp22 to float, !taffo.info !277
  %151 = fdiv float %150, 6.553600e+04, !taffo.info !277
  store float %151, float* getelementptr inbounds ([2 x float], [2 x float]* @params_cpAlpha, i64 0, i64 1), align 4, !taffo.info !307, !taffo.constinfo !90
  %152 = getelementptr inbounds [2 x i16], [2 x i16]* %2, i64 0, i64 0
  %153 = load i16, i16* %152, align 2
  store i16 %153, i16* getelementptr inbounds ([2 x i16], [2 x i16]* @params_cpOffset, i64 0, i64 0), align 2, !taffo.initweight !108, !taffo.info !1, !taffo.constinfo !90
  %154 = getelementptr inbounds [2 x i16], [2 x i16]* %2, i64 0, i64 1
  %155 = load i16, i16* %154, align 2
  store i16 %155, i16* getelementptr inbounds ([2 x i16], [2 x i16]* @params_cpOffset, i64 0, i64 1), align 2, !taffo.initweight !108, !taffo.info !1, !taffo.constinfo !90
  ret void
}

; Function Attrs: noinline nounwind uwtable mustprogress
define dso_local void @_Z21ExtractCILCParametersPKt(i16* %0) #1 !taffo.initweight !98 !taffo.funinfo !100 {
  %s9_23fixp = alloca [3 x i32], align 4, !taffo.info !42
  %2 = getelementptr inbounds i16, i16* %0, i64 10, !taffo.info !74
  %3 = load i16, i16* %2, align 2, !taffo.info !74
  %4 = zext i16 %3 to i32, !taffo.info !74
  %5 = and i32 %4, 2048, !taffo.constinfo !90
  %6 = ashr i32 %5, 4, !taffo.constinfo !90
  %7 = trunc i32 %6 to i8
  %8 = zext i8 %7 to i32
  %9 = xor i32 %8, 128, !taffo.constinfo !90
  %10 = trunc i32 %9 to i8
  %11 = getelementptr inbounds i16, i16* %0, i64 53, !taffo.info !74
  %12 = load i16, i16* %11, align 2, !taffo.info !74
  %13 = zext i16 %12 to i32, !taffo.info !74
  %14 = and i32 %13, 63, !taffo.info !42, !taffo.constinfo !90
  %15 = shl i32 %14, 23, !taffo.info !42
  %s9_23fixp21 = getelementptr inbounds [3 x i32], [3 x i32]* %s9_23fixp, i64 0, i64 0, !taffo.info !42
  store i32 %15, i32* %s9_23fixp21, align 4, !taffo.info !111
  %s9_23fixp20 = getelementptr inbounds [3 x i32], [3 x i32]* %s9_23fixp, i64 0, i64 0, !taffo.info !42
  %s9_23fixp33 = load i32, i32* %s9_23fixp20, align 4, !taffo.info !113
  %16 = icmp sgt i32 %s9_23fixp33, 260046848, !taffo.info !308
  br i1 %16, label %17, label %20, !taffo.initweight !165, !taffo.info !111

17:                                               ; preds = %1
  %s9_23fixp19 = getelementptr inbounds [3 x i32], [3 x i32]* %s9_23fixp, i64 0, i64 0, !taffo.info !42
  %s9_23fixp32 = load i32, i32* %s9_23fixp19, align 4, !taffo.info !309
  %18 = shl i32 %s9_23fixp32, 1, !taffo.info !309
  %s8_24fixp = sub i32 %18, 1073741824, !taffo.info !311, !taffo.constinfo !115
  %s9_23fixp18 = getelementptr inbounds [3 x i32], [3 x i32]* %s9_23fixp, i64 0, i64 0, !taffo.info !42
  %19 = ashr i32 %s8_24fixp, 1, !taffo.info !311, !taffo.constinfo !115
  store i32 %19, i32* %s9_23fixp18, align 4, !taffo.info !111
  br label %20

20:                                               ; preds = %1, %17
  %s9_23fixp17 = getelementptr inbounds [3 x i32], [3 x i32]* %s9_23fixp, i64 0, i64 0, !taffo.info !42
  %s9_23fixp31 = load i32, i32* %s9_23fixp17, align 4, !taffo.info !313
  %21 = sext i32 %s9_23fixp31 to i64, !taffo.info !313
  %22 = sdiv i64 %21, 16, !taffo.info !315, !taffo.constinfo !317
  %23 = shl i64 %22, 5, !taffo.info !315, !taffo.constinfo !317
  %s4_28fixp = trunc i64 %23 to i32, !taffo.info !320
  %s9_23fixp16 = getelementptr inbounds [3 x i32], [3 x i32]* %s9_23fixp, i64 0, i64 0, !taffo.info !42
  %24 = ashr i32 %s4_28fixp, 5, !taffo.info !320
  store i32 %24, i32* %s9_23fixp16, align 4, !taffo.info !111
  %25 = getelementptr inbounds i16, i16* %0, i64 53, !taffo.info !74
  %26 = load i16, i16* %25, align 2, !taffo.info !74
  %27 = zext i16 %26 to i32, !taffo.info !74
  %28 = and i32 %27, 1984, !taffo.constinfo !90
  %29 = ashr i32 %28, 6, !taffo.info !42, !taffo.constinfo !90
  %30 = shl i32 %29, 23, !taffo.info !42
  %s9_23fixp15 = getelementptr inbounds [3 x i32], [3 x i32]* %s9_23fixp, i64 0, i64 1, !taffo.info !42
  store i32 %30, i32* %s9_23fixp15, align 4, !taffo.info !111
  %s9_23fixp14 = getelementptr inbounds [3 x i32], [3 x i32]* %s9_23fixp, i64 0, i64 1, !taffo.info !42
  %s9_23fixp30 = load i32, i32* %s9_23fixp14, align 4, !taffo.info !313
  %31 = icmp sgt i32 %s9_23fixp30, 125829120, !taffo.info !322
  br i1 %31, label %32, label %33, !taffo.initweight !165, !taffo.info !111

32:                                               ; preds = %20
  %s9_23fixp13 = getelementptr inbounds [3 x i32], [3 x i32]* %s9_23fixp, i64 0, i64 1, !taffo.info !42
  %s9_23fixp29 = load i32, i32* %s9_23fixp13, align 4, !taffo.info !323
  %s9_23fixp36 = sub i32 %s9_23fixp29, 268435456, !taffo.info !324, !taffo.constinfo !326
  %s9_23fixp12 = getelementptr inbounds [3 x i32], [3 x i32]* %s9_23fixp, i64 0, i64 1, !taffo.info !42
  store i32 %s9_23fixp36, i32* %s9_23fixp12, align 4, !taffo.info !111
  br label %33

33:                                               ; preds = %20, %32
  %s9_23fixp11 = getelementptr inbounds [3 x i32], [3 x i32]* %s9_23fixp, i64 0, i64 1, !taffo.info !42
  %s9_23fixp28 = load i32, i32* %s9_23fixp11, align 4, !taffo.info !328
  %34 = sext i32 %s9_23fixp28 to i64, !taffo.info !328
  %35 = sdiv i64 %34, 2, !taffo.info !330, !taffo.constinfo !332
  %s9_23fixp35 = trunc i64 %35 to i32, !taffo.info !335
  %s9_23fixp10 = getelementptr inbounds [3 x i32], [3 x i32]* %s9_23fixp, i64 0, i64 1, !taffo.info !42
  store i32 %s9_23fixp35, i32* %s9_23fixp10, align 4, !taffo.info !111
  %36 = getelementptr inbounds i16, i16* %0, i64 53, !taffo.info !74
  %37 = load i16, i16* %36, align 2, !taffo.info !74
  %38 = zext i16 %37 to i32, !taffo.info !74
  %39 = and i32 %38, 63488, !taffo.constinfo !90
  %40 = ashr i32 %39, 11, !taffo.info !42, !taffo.constinfo !90
  %41 = shl i32 %40, 23, !taffo.info !42
  %s9_23fixp9 = getelementptr inbounds [3 x i32], [3 x i32]* %s9_23fixp, i64 0, i64 2, !taffo.info !42
  store i32 %41, i32* %s9_23fixp9, align 4, !taffo.info !111
  %s9_23fixp8 = getelementptr inbounds [3 x i32], [3 x i32]* %s9_23fixp, i64 0, i64 2, !taffo.info !42
  %s9_23fixp27 = load i32, i32* %s9_23fixp8, align 4, !taffo.info !328
  %42 = icmp sgt i32 %s9_23fixp27, 125829120, !taffo.info !336
  br i1 %42, label %43, label %44, !taffo.initweight !165, !taffo.info !111

43:                                               ; preds = %33
  %s9_23fixp7 = getelementptr inbounds [3 x i32], [3 x i32]* %s9_23fixp, i64 0, i64 2, !taffo.info !42
  %s9_23fixp26 = load i32, i32* %s9_23fixp7, align 4, !taffo.info !328
  %s9_23fixp34 = sub i32 %s9_23fixp26, 268435456, !taffo.info !337, !taffo.constinfo !326
  %s9_23fixp6 = getelementptr inbounds [3 x i32], [3 x i32]* %s9_23fixp, i64 0, i64 2, !taffo.info !42
  store i32 %s9_23fixp34, i32* %s9_23fixp6, align 4, !taffo.info !111
  br label %44

44:                                               ; preds = %33, %43
  %s9_23fixp5 = getelementptr inbounds [3 x i32], [3 x i32]* %s9_23fixp, i64 0, i64 2, !taffo.info !42
  %s9_23fixp25 = load i32, i32* %s9_23fixp5, align 4, !taffo.info !42
  %45 = sext i32 %s9_23fixp25 to i64, !taffo.info !42
  %46 = sdiv i64 %45, 8, !taffo.info !339, !taffo.constinfo !133
  %47 = shl i64 %46, 3, !taffo.info !339, !taffo.constinfo !133
  %s6_26fixp = trunc i64 %47 to i32, !taffo.info !341
  %s9_23fixp4 = getelementptr inbounds [3 x i32], [3 x i32]* %s9_23fixp, i64 0, i64 2, !taffo.info !42
  %48 = ashr i32 %s6_26fixp, 3, !taffo.info !341
  store i32 %48, i32* %s9_23fixp4, align 4, !taffo.info !111
  store i8 %10, i8* @params_calibrationModeEE, align 1, !taffo.constinfo !90
  %s9_23fixp3 = getelementptr inbounds [3 x i32], [3 x i32]* %s9_23fixp, i64 0, i64 0, !taffo.info !42
  %s9_23fixp24 = load i32, i32* %s9_23fixp3, align 4, !taffo.info !42
  %49 = sitofp i32 %s9_23fixp24 to float, !taffo.info !42
  %50 = fdiv float %49, 0x4160000000000000, !taffo.info !42
  store float %50, float* getelementptr inbounds ([3 x float], [3 x float]* @params_ilChessC, i64 0, i64 0), align 4, !taffo.info !343, !taffo.constinfo !90
  %s9_23fixp2 = getelementptr inbounds [3 x i32], [3 x i32]* %s9_23fixp, i64 0, i64 1, !taffo.info !42
  %s9_23fixp23 = load i32, i32* %s9_23fixp2, align 4, !taffo.info !42
  %51 = sitofp i32 %s9_23fixp23 to float, !taffo.info !42
  %52 = fdiv float %51, 0x4160000000000000, !taffo.info !42
  store float %52, float* getelementptr inbounds ([3 x float], [3 x float]* @params_ilChessC, i64 0, i64 1), align 4, !taffo.info !343, !taffo.constinfo !90
  %s9_23fixp1 = getelementptr inbounds [3 x i32], [3 x i32]* %s9_23fixp, i64 0, i64 2, !taffo.info !42
  %s9_23fixp22 = load i32, i32* %s9_23fixp1, align 4, !taffo.info !42
  %53 = sitofp i32 %s9_23fixp22 to float, !taffo.info !42
  %54 = fdiv float %53, 0x4160000000000000, !taffo.info !42
  store float %54, float* getelementptr inbounds ([3 x float], [3 x float]* @params_ilChessC, i64 0, i64 2), align 4, !taffo.info !343, !taffo.constinfo !90
  ret void
}

; Function Attrs: noinline uwtable mustprogress
define dso_local i32 @_Z22ExtractDeviatingPixelsPKt(i16* %0) #0 !taffo.initweight !98 !taffo.funinfo !100 {
  br label %2

2:                                                ; preds = %10, %1
  %.02 = phi i16 [ 0, %1 ], [ %11, %10 ], !taffo.info !344
  %3 = zext i16 %.02 to i32, !taffo.info !344
  %4 = icmp slt i32 %3, 5, !taffo.info !103
  br i1 %4, label %5, label %12

5:                                                ; preds = %2
  %6 = zext i16 %.02 to i64, !taffo.info !169
  %7 = getelementptr inbounds [5 x i16], [5 x i16]* @params_brokenPixels, i64 0, i64 %6, !taffo.initweight !107, !taffo.info !44
  store i16 -1, i16* %7, align 2, !taffo.initweight !108, !taffo.info !346, !taffo.constinfo !90
  %8 = zext i16 %.02 to i64, !taffo.info !169
  %9 = getelementptr inbounds [5 x i16], [5 x i16]* @params_outlierPixels, i64 0, i64 %8, !taffo.initweight !107, !taffo.info !44
  store i16 -1, i16* %9, align 2, !taffo.initweight !108, !taffo.info !346, !taffo.constinfo !90
  br label %10

10:                                               ; preds = %5
  %11 = add i16 %.02, 1, !taffo.info !348, !taffo.constinfo !90
  br label %2, !llvm.loop !350

12:                                               ; preds = %2
  br label %13

13:                                               ; preds = %54, %12
  %.07 = phi i16 [ 0, %12 ], [ %.29, %54 ], !taffo.info !26
  %.05 = phi i16 [ 0, %12 ], [ %.16, %54 ], !taffo.info !26
  %.13 = phi i16 [ 0, %12 ], [ %57, %54 ], !taffo.info !26
  %14 = zext i16 %.13 to i32, !taffo.info !26
  %15 = icmp slt i32 %14, 768, !taffo.info !301
  br i1 %15, label %16, label %22

16:                                               ; preds = %13
  %17 = zext i16 %.05 to i32, !taffo.info !26
  %18 = icmp slt i32 %17, 5, !taffo.info !301
  br i1 %18, label %19, label %22

19:                                               ; preds = %16
  %20 = zext i16 %.07 to i32, !taffo.info !26
  %21 = icmp slt i32 %20, 5, !taffo.info !301
  br label %22

22:                                               ; preds = %19, %16, %13
  %23 = phi i1 [ false, %16 ], [ false, %13 ], [ %21, %19 ], !taffo.info !103
  br i1 %23, label %24, label %58

24:                                               ; preds = %22
  %25 = zext i16 %.13 to i32, !taffo.info !26
  %26 = add nsw i32 %25, 64, !taffo.info !116, !taffo.constinfo !90
  %27 = sext i32 %26 to i64, !taffo.info !116
  %28 = getelementptr inbounds i16, i16* %0, i64 %27, !taffo.info !74
  %29 = load i16, i16* %28, align 2, !taffo.info !74
  %30 = zext i16 %29 to i32, !taffo.info !74
  %31 = icmp eq i32 %30, 0, !taffo.info !103
  br i1 %31, label %32, label %38

32:                                               ; preds = %24
  %33 = zext i16 %.05 to i64, !taffo.info !26
  %34 = getelementptr inbounds [5 x i16], [5 x i16]* @params_brokenPixels, i64 0, i64 %33, !taffo.initweight !107, !taffo.info !44
  store i16 %.13, i16* %34, align 2, !taffo.initweight !108, !taffo.info !346
  %35 = zext i16 %.05 to i32, !taffo.info !26
  %36 = add nsw i32 %35, 1, !taffo.info !301, !taffo.constinfo !90
  %37 = trunc i32 %36 to i16, !taffo.info !301
  br label %54

38:                                               ; preds = %24
  %39 = zext i16 %.13 to i32, !taffo.info !26
  %40 = add nsw i32 %39, 64, !taffo.info !116, !taffo.constinfo !90
  %41 = sext i32 %40 to i64, !taffo.info !116
  %42 = getelementptr inbounds i16, i16* %0, i64 %41, !taffo.info !74
  %43 = load i16, i16* %42, align 2, !taffo.info !74
  %44 = zext i16 %43 to i32, !taffo.info !74
  %45 = and i32 %44, 1, !taffo.constinfo !90
  %46 = icmp ne i32 %45, 0, !taffo.info !103
  br i1 %46, label %47, label %53

47:                                               ; preds = %38
  %48 = zext i16 %.07 to i64, !taffo.info !26
  %49 = getelementptr inbounds [5 x i16], [5 x i16]* @params_outlierPixels, i64 0, i64 %48, !taffo.initweight !107, !taffo.info !44
  store i16 %.13, i16* %49, align 2, !taffo.initweight !108, !taffo.info !346
  %50 = zext i16 %.07 to i32, !taffo.info !26
  %51 = add nsw i32 %50, 1, !taffo.info !301, !taffo.constinfo !90
  %52 = trunc i32 %51 to i16, !taffo.info !301
  br label %53

53:                                               ; preds = %47, %38
  %.18 = phi i16 [ %52, %47 ], [ %.07, %38 ], !taffo.info !103
  br label %54

54:                                               ; preds = %53, %32
  %.29 = phi i16 [ %.07, %32 ], [ %.18, %53 ], !taffo.info !103
  %.16 = phi i16 [ %37, %32 ], [ %.05, %53 ], !taffo.info !103
  %55 = zext i16 %.13 to i32, !taffo.info !26
  %56 = add nsw i32 %55, 1, !taffo.info !301, !taffo.constinfo !90
  %57 = trunc i32 %56 to i16, !taffo.info !301
  br label %13, !llvm.loop !351

58:                                               ; preds = %22
  %59 = zext i16 %.05 to i32, !taffo.info !26
  %60 = icmp sgt i32 %59, 4, !taffo.info !26
  br i1 %60, label %61, label %62

61:                                               ; preds = %58
  br label %154

62:                                               ; preds = %58
  %63 = zext i16 %.07 to i32, !taffo.info !26
  %64 = icmp sgt i32 %63, 4, !taffo.info !26
  br i1 %64, label %65, label %66

65:                                               ; preds = %62
  br label %153

66:                                               ; preds = %62
  %67 = zext i16 %.05 to i32, !taffo.info !26
  %68 = zext i16 %.07 to i32, !taffo.info !26
  %69 = add nsw i32 %67, %68, !taffo.info !26
  %70 = icmp sgt i32 %69, 4, !taffo.info !26
  br i1 %70, label %71, label %72

71:                                               ; preds = %66
  br label %152

72:                                               ; preds = %66
  br label %73

73:                                               ; preds = %97, %72
  %.010 = phi i32 [ 0, %72 ], [ %.111, %97 ], !taffo.info !105
  %.24 = phi i16 [ 0, %72 ], [ %98, %97 ], !taffo.info !103
  %74 = zext i16 %.24 to i32, !taffo.info !103
  %75 = zext i16 %.05 to i32, !taffo.info !26
  %76 = icmp slt i32 %74, %75, !taffo.info !26
  br i1 %76, label %77, label %99

77:                                               ; preds = %73
  %78 = zext i16 %.24 to i32, !taffo.info !26
  %79 = add nsw i32 %78, 1, !taffo.info !301, !taffo.constinfo !90
  br label %80

80:                                               ; preds = %94, %77
  %.111 = phi i32 [ %.010, %77 ], [ %90, %94 ], !taffo.info !105
  %.01 = phi i32 [ %79, %77 ], [ %95, %94 ], !taffo.info !352
  %81 = zext i16 %.05 to i32, !taffo.info !26
  %82 = icmp slt i32 %.01, %81, !taffo.info !26
  br i1 %82, label %83, label %96

83:                                               ; preds = %80
  %84 = zext i16 %.24 to i64, !taffo.info !26
  %85 = getelementptr inbounds [5 x i16], [5 x i16]* @params_brokenPixels, i64 0, i64 %84, !taffo.initweight !107, !taffo.info !44
  %86 = load i16, i16* %85, align 2, !taffo.initweight !108, !taffo.info !44
  %87 = sext i32 %.01 to i64, !taffo.info !301
  %88 = getelementptr inbounds [5 x i16], [5 x i16]* @params_brokenPixels, i64 0, i64 %87, !taffo.initweight !107, !taffo.info !44
  %89 = load i16, i16* %88, align 2, !taffo.initweight !108, !taffo.info !44
  %90 = call i32 @_Z19CheckAdjacentPixelstt.8(i16 zeroext %86, i16 zeroext %89), !taffo.initweight !110, !taffo.info !105, !taffo.constinfo !95, !taffo.originalCall !354
  %91 = icmp ne i32 %90, 0, !taffo.info !103
  br i1 %91, label %92, label %93

92:                                               ; preds = %83
  br label %155

93:                                               ; preds = %83
  br label %94

94:                                               ; preds = %93
  %95 = add nsw i32 %.01, 1, !taffo.info !355, !taffo.constinfo !90
  br label %80, !llvm.loop !356

96:                                               ; preds = %80
  br label %97

97:                                               ; preds = %96
  %98 = add i16 %.24, 1, !taffo.info !301, !taffo.constinfo !90
  br label %73, !llvm.loop !357

99:                                               ; preds = %73
  br label %100

100:                                              ; preds = %124, %99
  %.212 = phi i32 [ %.010, %99 ], [ %.313, %124 ], !taffo.info !105
  %.3 = phi i16 [ 0, %99 ], [ %125, %124 ], !taffo.info !103
  %101 = zext i16 %.3 to i32, !taffo.info !103
  %102 = zext i16 %.07 to i32, !taffo.info !26
  %103 = icmp slt i32 %101, %102, !taffo.info !26
  br i1 %103, label %104, label %126

104:                                              ; preds = %100
  %105 = zext i16 %.3 to i32, !taffo.info !26
  %106 = add nsw i32 %105, 1, !taffo.info !301, !taffo.constinfo !90
  br label %107

107:                                              ; preds = %121, %104
  %.313 = phi i32 [ %.212, %104 ], [ %117, %121 ], !taffo.info !105
  %.1 = phi i32 [ %106, %104 ], [ %122, %121 ], !taffo.info !352
  %108 = zext i16 %.07 to i32, !taffo.info !26
  %109 = icmp slt i32 %.1, %108, !taffo.info !26
  br i1 %109, label %110, label %123

110:                                              ; preds = %107
  %111 = zext i16 %.3 to i64, !taffo.info !26
  %112 = getelementptr inbounds [5 x i16], [5 x i16]* @params_outlierPixels, i64 0, i64 %111, !taffo.initweight !107, !taffo.info !44
  %113 = load i16, i16* %112, align 2, !taffo.initweight !108, !taffo.info !44
  %114 = sext i32 %.1 to i64, !taffo.info !301
  %115 = getelementptr inbounds [5 x i16], [5 x i16]* @params_outlierPixels, i64 0, i64 %114, !taffo.initweight !107, !taffo.info !44
  %116 = load i16, i16* %115, align 2, !taffo.initweight !108, !taffo.info !44
  %117 = call i32 @_Z19CheckAdjacentPixelstt.8(i16 zeroext %113, i16 zeroext %116), !taffo.initweight !110, !taffo.info !105, !taffo.constinfo !95, !taffo.originalCall !354
  %118 = icmp ne i32 %117, 0, !taffo.info !103
  br i1 %118, label %119, label %120

119:                                              ; preds = %110
  br label %155

120:                                              ; preds = %110
  br label %121

121:                                              ; preds = %120
  %122 = add nsw i32 %.1, 1, !taffo.info !355, !taffo.constinfo !90
  br label %107, !llvm.loop !358

123:                                              ; preds = %107
  br label %124

124:                                              ; preds = %123
  %125 = add i16 %.3, 1, !taffo.info !301, !taffo.constinfo !90
  br label %100, !llvm.loop !359

126:                                              ; preds = %100
  br label %127

127:                                              ; preds = %149, %126
  %.414 = phi i32 [ %.212, %126 ], [ %.5, %149 ], !taffo.info !105
  %.4 = phi i16 [ 0, %126 ], [ %150, %149 ], !taffo.info !103
  %128 = zext i16 %.4 to i32, !taffo.info !103
  %129 = zext i16 %.05 to i32, !taffo.info !26
  %130 = icmp slt i32 %128, %129, !taffo.info !26
  br i1 %130, label %131, label %151

131:                                              ; preds = %127
  br label %132

132:                                              ; preds = %146, %131
  %.5 = phi i32 [ %.414, %131 ], [ %142, %146 ], !taffo.info !105
  %.2 = phi i32 [ 0, %131 ], [ %147, %146 ], !taffo.info !103
  %133 = zext i16 %.07 to i32, !taffo.info !26
  %134 = icmp slt i32 %.2, %133, !taffo.info !26
  br i1 %134, label %135, label %148

135:                                              ; preds = %132
  %136 = zext i16 %.4 to i64, !taffo.info !26
  %137 = getelementptr inbounds [5 x i16], [5 x i16]* @params_brokenPixels, i64 0, i64 %136, !taffo.initweight !107, !taffo.info !44
  %138 = load i16, i16* %137, align 2, !taffo.initweight !108, !taffo.info !44
  %139 = sext i32 %.2 to i64, !taffo.info !26
  %140 = getelementptr inbounds [5 x i16], [5 x i16]* @params_outlierPixels, i64 0, i64 %139, !taffo.initweight !107, !taffo.info !44
  %141 = load i16, i16* %140, align 2, !taffo.initweight !108, !taffo.info !44
  %142 = call i32 @_Z19CheckAdjacentPixelstt.8(i16 zeroext %138, i16 zeroext %141), !taffo.initweight !110, !taffo.info !105, !taffo.constinfo !95, !taffo.originalCall !354
  %143 = icmp ne i32 %142, 0, !taffo.info !103
  br i1 %143, label %144, label %145

144:                                              ; preds = %135
  br label %155

145:                                              ; preds = %135
  br label %146

146:                                              ; preds = %145
  %147 = add nsw i32 %.2, 1, !taffo.info !301, !taffo.constinfo !90
  br label %132, !llvm.loop !360

148:                                              ; preds = %132
  br label %149

149:                                              ; preds = %148
  %150 = add i16 %.4, 1, !taffo.info !301, !taffo.constinfo !90
  br label %127, !llvm.loop !361

151:                                              ; preds = %127
  br label %152

152:                                              ; preds = %151, %71
  %.6 = phi i32 [ -5, %71 ], [ %.414, %151 ], !taffo.info !105
  br label %153

153:                                              ; preds = %152, %65
  %.7 = phi i32 [ -4, %65 ], [ %.6, %152 ], !taffo.info !105
  br label %154

154:                                              ; preds = %153, %61
  %.8 = phi i32 [ -3, %61 ], [ %.7, %153 ], !taffo.info !105
  br label %155

155:                                              ; preds = %154, %144, %119, %92
  %.0 = phi i32 [ %.8, %154 ], [ %90, %92 ], [ %117, %119 ], [ %142, %144 ], !taffo.info !105
  ret i32 %.0
}

; Function Attrs: noinline uwtable mustprogress
define dso_local i32 @_Z22MLX90640_SetResolutionhh(i8 zeroext %0, i8 zeroext %1) #0 !taffo.initweight !84 !taffo.funinfo !85 {
  %3 = alloca i16, align 2
  %4 = zext i8 %1 to i32
  %5 = and i32 %4, 3, !taffo.constinfo !90
  %6 = shl i32 %5, 10, !taffo.constinfo !90
  %7 = call i32 @_Z16MLX90640_I2CReadhjjPt(i8 zeroext %0, i32 32781, i32 1, i16* %3), !taffo.constinfo !86
  %8 = icmp eq i32 %7, 0
  br i1 %8, label %9, label %16

9:                                                ; preds = %2
  %10 = load i16, i16* %3, align 2
  %11 = zext i16 %10 to i32
  %12 = and i32 %11, 62463, !taffo.constinfo !90
  %13 = or i32 %12, %6
  %14 = trunc i32 %13 to i16
  %15 = call i32 @_Z17MLX90640_I2CWritehjt(i8 zeroext %0, i32 32781, i16 zeroext %14), !taffo.constinfo !93
  br label %16

16:                                               ; preds = %9, %2
  %.0 = phi i32 [ %15, %9 ], [ %7, %2 ]
  ret i32 %.0
}

; Function Attrs: noinline uwtable mustprogress
define dso_local i32 @_Z25MLX90640_GetCurResolutionh(i8 zeroext %0) #0 !taffo.initweight !98 !taffo.funinfo !99 {
  %2 = alloca i16, align 2
  %3 = call i32 @_Z16MLX90640_I2CReadhjjPt(i8 zeroext %0, i32 32781, i32 1, i16* %2), !taffo.constinfo !86
  %4 = icmp ne i32 %3, 0
  br i1 %4, label %5, label %6

5:                                                ; preds = %1
  br label %11

6:                                                ; preds = %1
  %7 = load i16, i16* %2, align 2
  %8 = zext i16 %7 to i32
  %9 = and i32 %8, 3072, !taffo.constinfo !90
  %10 = ashr i32 %9, 10, !taffo.constinfo !90
  br label %11

11:                                               ; preds = %6, %5
  %.0 = phi i32 [ %3, %5 ], [ %10, %6 ]
  ret i32 %.0
}

; Function Attrs: noinline uwtable mustprogress
define dso_local i32 @_Z23MLX90640_SetRefreshRatehh(i8 zeroext %0, i8 zeroext %1) #0 !taffo.initweight !84 !taffo.funinfo !85 {
  %3 = alloca i16, align 2
  %4 = zext i8 %1 to i32
  %5 = and i32 %4, 7, !taffo.constinfo !90
  %6 = shl i32 %5, 7, !taffo.constinfo !90
  %7 = call i32 @_Z16MLX90640_I2CReadhjjPt(i8 zeroext %0, i32 32781, i32 1, i16* %3), !taffo.constinfo !86
  %8 = icmp eq i32 %7, 0
  br i1 %8, label %9, label %16

9:                                                ; preds = %2
  %10 = load i16, i16* %3, align 2
  %11 = zext i16 %10 to i32
  %12 = and i32 %11, 64639, !taffo.constinfo !90
  %13 = or i32 %12, %6
  %14 = trunc i32 %13 to i16
  %15 = call i32 @_Z17MLX90640_I2CWritehjt(i8 zeroext %0, i32 32781, i16 zeroext %14), !taffo.constinfo !93
  br label %16

16:                                               ; preds = %9, %2
  %.0 = phi i32 [ %15, %9 ], [ %7, %2 ]
  ret i32 %.0
}

; Function Attrs: noinline uwtable mustprogress
define dso_local i32 @_Z23MLX90640_GetRefreshRateh(i8 zeroext %0) #0 !taffo.initweight !98 !taffo.funinfo !99 {
  %2 = alloca i16, align 2
  %3 = call i32 @_Z16MLX90640_I2CReadhjjPt(i8 zeroext %0, i32 32781, i32 1, i16* %2), !taffo.constinfo !86
  %4 = icmp ne i32 %3, 0
  br i1 %4, label %5, label %6

5:                                                ; preds = %1
  br label %11

6:                                                ; preds = %1
  %7 = load i16, i16* %2, align 2
  %8 = zext i16 %7 to i32
  %9 = and i32 %8, 896, !taffo.constinfo !90
  %10 = ashr i32 %9, 7, !taffo.constinfo !90
  br label %11

11:                                               ; preds = %6, %5
  %.0 = phi i32 [ %3, %5 ], [ %10, %6 ]
  ret i32 %.0
}

; Function Attrs: noinline uwtable mustprogress
define dso_local i32 @_Z27MLX90640_SetInterleavedModeh(i8 zeroext %0) #0 !taffo.initweight !98 !taffo.funinfo !99 {
  %2 = alloca i16, align 2
  %3 = call i32 @_Z16MLX90640_I2CReadhjjPt(i8 zeroext %0, i32 32781, i32 1, i16* %2), !taffo.constinfo !86
  %4 = icmp eq i32 %3, 0
  br i1 %4, label %5, label %11

5:                                                ; preds = %1
  %6 = load i16, i16* %2, align 2
  %7 = zext i16 %6 to i32
  %8 = and i32 %7, 61439, !taffo.constinfo !90
  %9 = trunc i32 %8 to i16
  %10 = call i32 @_Z17MLX90640_I2CWritehjt(i8 zeroext %0, i32 32781, i16 zeroext %9), !taffo.constinfo !93
  br label %11

11:                                               ; preds = %5, %1
  %.0 = phi i32 [ %10, %5 ], [ %3, %1 ]
  ret i32 %.0
}

; Function Attrs: noinline uwtable mustprogress
define dso_local i32 @_Z21MLX90640_SetChessModeh(i8 zeroext %0) #0 !taffo.initweight !98 !taffo.funinfo !99 {
  %2 = alloca i16, align 2
  %3 = call i32 @_Z16MLX90640_I2CReadhjjPt(i8 zeroext %0, i32 32781, i32 1, i16* %2), !taffo.constinfo !86
  %4 = icmp eq i32 %3, 0
  br i1 %4, label %5, label %11

5:                                                ; preds = %1
  %6 = load i16, i16* %2, align 2
  %7 = zext i16 %6 to i32
  %8 = or i32 %7, 4096, !taffo.constinfo !90
  %9 = trunc i32 %8 to i16
  %10 = call i32 @_Z17MLX90640_I2CWritehjt(i8 zeroext %0, i32 32781, i16 zeroext %9), !taffo.constinfo !93
  br label %11

11:                                               ; preds = %5, %1
  %.0 = phi i32 [ %10, %5 ], [ %3, %1 ]
  ret i32 %.0
}

; Function Attrs: noinline uwtable mustprogress
define dso_local i32 @_Z19MLX90640_GetCurModeh(i8 zeroext %0) #0 !taffo.initweight !98 !taffo.funinfo !99 {
  %2 = alloca i16, align 2
  %3 = call i32 @_Z16MLX90640_I2CReadhjjPt(i8 zeroext %0, i32 32781, i32 1, i16* %2), !taffo.constinfo !86
  %4 = icmp ne i32 %3, 0
  br i1 %4, label %5, label %6

5:                                                ; preds = %1
  br label %11

6:                                                ; preds = %1
  %7 = load i16, i16* %2, align 2
  %8 = zext i16 %7 to i32
  %9 = and i32 %8, 4096, !taffo.constinfo !90
  %10 = ashr i32 %9, 12, !taffo.constinfo !90
  br label %11

11:                                               ; preds = %6, %5
  %.0 = phi i32 [ %3, %5 ], [ %10, %6 ]
  ret i32 %.0
}

; Function Attrs: noinline uwtable mustprogress
define dso_local void @_Z20MLX90640_CalculateToPKtffPf(i16* %0, float %1, float %2, float* %3) #0 !taffo.initweight !87 !taffo.funinfo !88 !taffo.equivalentChild !362 {
  %5 = fmul float 0x4190000000000000, %1, !taffo.info !343
  %6 = fptosi float %5 to i64, !taffo.info !343
  %7 = fmul float 8.192000e+03, %1, !taffo.info !343
  %8 = fptosi float %7 to i32, !taffo.info !343
  %9 = alloca [2 x float], align 4, !taffo.initweight !0, !taffo.info !343
  %10 = alloca [4 x float], align 16, !taffo.initweight !0, !taffo.info !343
  %11 = getelementptr inbounds i16, i16* %0, i64 833
  %12 = load i16, i16* %11, align 2
  %13 = call float @_Z15MLX90640_GetVddPKt(i16* %0), !taffo.constinfo !90
  %14 = call float @_Z14MLX90640_GetTaPKt(i16* %0), !taffo.constinfo !90
  %15 = fmul float 6.553600e+04, %14, !taffo.info !363, !taffo.constinfo !90
  %s16_16fixp = fptosi float %15 to i32, !taffo.info !363
  %16 = sitofp i32 %s16_16fixp to double, !taffo.info !363
  %17 = fdiv double %16, 6.553600e+04, !taffo.info !363
  %.flt = call i32 (i8*, ...) @printf(i8* getelementptr inbounds ([12 x i8], [12 x i8]* @.str.22, i64 0, i64 0), double %17), !taffo.initweight !110, !taffo.info !365, !taffo.constinfo !95
  %18 = fpext float %2 to double, !taffo.initweight !108, !taffo.info !343
  %19 = call i32 (i8*, ...) @printf(i8* getelementptr inbounds ([12 x i8], [12 x i8]* @.str.23, i64 0, i64 0), double %18), !taffo.initweight !110, !taffo.info !343, !taffo.constinfo !95
  %20 = fmul float 6.553600e+04, %14, !taffo.info !363, !taffo.constinfo !90
  %s16_16fixp17 = fptosi float %20 to i32, !taffo.info !363
  %s16_16fixp39 = add i32 %s16_16fixp17, 17901158, !taffo.info !363, !taffo.constinfo !366
  %21 = sext i32 %s16_16fixp39 to i64, !taffo.info !363
  %s38_26fixp74 = shl i64 %21, 10, !taffo.info !369
  %22 = sitofp i64 %s38_26fixp74 to double, !taffo.info !369
  %23 = fdiv double %22, 0x4190000000000000, !taffo.info !369
  %.flt90 = call i32 (i8*, ...) @printf(i8* getelementptr inbounds ([19 x i8], [19 x i8]* @.str.24, i64 0, i64 0), double %23), !taffo.initweight !110, !taffo.info !372, !taffo.constinfo !95
  %24 = sext i32 %s16_16fixp39 to i64, !taffo.info !363
  %25 = sext i32 %s16_16fixp39 to i64, !taffo.info !363
  %26 = mul i64 %24, %25, !taffo.info !373
  %s38_26fixp = ashr i64 %26, 6, !taffo.info !369
  %27 = sext i64 %s38_26fixp to i96, !taffo.info !369
  %28 = sext i32 %s16_16fixp39 to i96, !taffo.info !363
  %29 = mul i96 %27, %28, !taffo.info !375
  %30 = ashr i96 %29, 16, !taffo.info !375
  %s38_26fixp89 = trunc i96 %30 to i64, !taffo.info !369
  %31 = sext i64 %s38_26fixp89 to i96, !taffo.info !369
  %32 = sext i32 %s16_16fixp39 to i96, !taffo.info !363
  %33 = mul i96 %31, %32, !taffo.info !375
  %34 = ashr i96 %33, 16, !taffo.info !375
  %s38_26fixp100 = trunc i96 %34 to i64, !taffo.info !369
  %35 = sitofp i64 %s38_26fixp100 to double, !taffo.info !369
  %36 = fdiv double %35, 0x4190000000000000, !taffo.info !369
  %.flt120 = call i32 (i8*, ...) @printf(i8* getelementptr inbounds ([11 x i8], [11 x i8]* @.str.25, i64 0, i64 0), double %36), !taffo.initweight !110, !taffo.info !372, !taffo.constinfo !95
  %37 = fpext float %2 to double, !taffo.initweight !108, !taffo.info !343
  %38 = fadd double %37, 2.731500e+02, !taffo.initweight !110, !taffo.info !343, !taffo.constinfo !366
  %39 = call double @_ZSt3powIdiEN9__gnu_cxx11__promote_2IT_T0_NS0_9__promoteIS2_Xsr3std12__is_integerIS2_EE7__valueEE6__typeENS4_IS3_Xsr3std12__is_integerIS3_EE7__valueEE6__typeEE6__typeES2_S3_.17(double %38, i32 4), !taffo.initweight !165, !taffo.info !343, !taffo.constinfo !95, !taffo.originalCall !377
  %40 = fptrunc double %39 to float, !taffo.initweight !166, !taffo.info !343
  %41 = fpext float %40 to double, !taffo.initweight !108, !taffo.info !343
  %42 = call i32 (i8*, ...) @printf(i8* getelementptr inbounds ([11 x i8], [11 x i8]* @.str.26, i64 0, i64 0), double %41), !taffo.initweight !110, !taffo.info !343, !taffo.constinfo !95
  %43 = fmul float 0x4190000000000000, %40, !taffo.info !343
  %44 = fptosi float %43 to i64, !taffo.info !343
  %s38_26fixp109 = sub i64 %44, %s38_26fixp100, !taffo.info !372
  %45 = sitofp i64 %s38_26fixp109 to double, !taffo.info !372
  %46 = fdiv double %45, 0x4190000000000000, !taffo.info !372
  %.flt126 = call i32 (i8*, ...) @printf(i8* getelementptr inbounds ([10 x i8], [10 x i8]* @.str.27, i64 0, i64 0), double %46), !taffo.initweight !110, !taffo.info !372, !taffo.constinfo !95
  %47 = sext i64 %s38_26fixp109 to i128, !taffo.info !369
  %48 = shl i128 %47, 26, !taffo.info !369
  %49 = sext i64 %6 to i128, !taffo.info !343
  %50 = sdiv i128 %48, %49, !taffo.info !378
  %s38_26fixp119 = trunc i128 %50 to i64, !taffo.info !372
  %51 = sitofp i64 %s38_26fixp119 to double, !taffo.info !372
  %52 = fdiv double %51, 0x4190000000000000, !taffo.info !372
  %53 = fpext float %1 to double, !taffo.initweight !108, !taffo.info !343
  %.flt132 = call i32 (i8*, ...) @printf(i8* getelementptr inbounds ([32 x i8], [32 x i8]* @.str.28, i64 0, i64 0), double %52, double %53), !taffo.initweight !110, !taffo.info !372, !taffo.constinfo !93
  %54 = fmul float 0x4190000000000000, %40, !taffo.info !343
  %55 = fptosi float %54 to i64, !taffo.info !343
  %s38_26fixp125 = sub i64 %55, %s38_26fixp119, !taffo.info !372
  %56 = sitofp i64 %s38_26fixp125 to double, !taffo.info !372
  %57 = fdiv double %56, 0x4190000000000000, !taffo.info !372
  %58 = sitofp i64 %s38_26fixp125 to double, !taffo.info !372
  %59 = fdiv double %58, 0x4190000000000000, !taffo.info !372
  %60 = sitofp i64 %s38_26fixp125 to double, !taffo.info !372
  %61 = fdiv double %60, 0x4190000000000000, !taffo.info !372
  %.flt137 = call i32 (i8*, ...) @printf(i8* getelementptr inbounds ([12 x i8], [12 x i8]* @.str.29, i64 0, i64 0), double %57), !taffo.initweight !110, !taffo.info !372, !taffo.constinfo !95
  %.flt51 = load float, float* getelementptr inbounds ([4 x float], [4 x float]* @params_ksTo, i64 0, i64 0), align 16, !taffo.initweight !108, !taffo.info !380
  %62 = fmul float 0x4150000000000000, %.flt51, !taffo.info !380
  %.flt51.fallback.s10_22fixp = fptosi float %62 to i32, !taffo.info !380
  %63 = sext i32 %.flt51.fallback.s10_22fixp to i64, !taffo.info !380
  %64 = mul i64 %63, 40, !taffo.info !382, !taffo.constinfo !384
  %s10_22fixp69 = trunc i64 %64 to i32, !taffo.info !380
  %s10_22fixp85 = add i32 4194304, %s10_22fixp69, !taffo.info !380, !taffo.constinfo !300
  %65 = sext i32 %s10_22fixp85 to i64, !taffo.info !380
  %66 = sdiv i64 9007199254740992, %65, !taffo.info !387, !taffo.constinfo !389
  %67 = ashr i64 %66, 9, !taffo.info !387, !taffo.constinfo !389
  %s10_22fixp95 = trunc i64 %67 to i32, !taffo.info !380
  %68 = sitofp i32 %s10_22fixp95 to float, !taffo.info !380
  %69 = fdiv float %68, 0x4150000000000000, !taffo.info !380
  %70 = getelementptr inbounds [4 x float], [4 x float]* %10, i64 0, i64 0, !taffo.initweight !107, !taffo.info !343
  store float %69, float* %70, align 16, !taffo.info !343
  %71 = getelementptr inbounds [4 x float], [4 x float]* %10, i64 0, i64 1, !taffo.initweight !107, !taffo.info !343
  store float 1.000000e+00, float* %71, align 4, !taffo.info !343, !taffo.constinfo !300
  %.flt48 = load float, float* getelementptr inbounds ([4 x float], [4 x float]* @params_ksTo, i64 0, i64 2), align 8, !taffo.initweight !108, !taffo.info !380
  %72 = fmul float 0x4150000000000000, %.flt48, !taffo.info !380
  %.flt48.fallback.s10_22fixp = fptosi float %72 to i32, !taffo.info !380
  %73 = load i16, i16* getelementptr inbounds ([4 x i16], [4 x i16]* @params_ct, i64 0, i64 2), align 2, !taffo.initweight !108, !taffo.info !1
  %74 = sext i16 %73 to i32, !taffo.initweight !110, !taffo.info !1
  %s17_15fixp12 = shl i32 %74, 15, !taffo.info !392
  %75 = sext i32 %.flt48.fallback.s10_22fixp to i64, !taffo.info !380
  %76 = sext i32 %s17_15fixp12 to i64, !taffo.info !392
  %77 = mul i64 %75, %76, !taffo.info !394
  %78 = ashr i64 %77, 15, !taffo.info !394
  %s10_22fixp68 = trunc i64 %78 to i32, !taffo.info !380
  %s10_22fixp83 = add i32 4194304, %s10_22fixp68, !taffo.info !380, !taffo.constinfo !300
  %79 = sitofp i32 %s10_22fixp83 to float, !taffo.info !380
  %80 = fdiv float %79, 0x4150000000000000, !taffo.info !380, !taffo.constinfo !300
  %81 = getelementptr inbounds [4 x float], [4 x float]* %10, i64 0, i64 2, !taffo.initweight !107, !taffo.info !343
  store float %80, float* %81, align 8, !taffo.info !343
  %82 = getelementptr inbounds [4 x float], [4 x float]* %10, i64 0, i64 2, !taffo.initweight !107, !taffo.info !343
  %83 = load float, float* %82, align 8, !taffo.initweight !108, !taffo.info !343
  %.flt47 = load float, float* getelementptr inbounds ([4 x float], [4 x float]* @params_ksTo, i64 0, i64 3), align 4, !taffo.initweight !108, !taffo.info !380
  %84 = fmul float 0x4150000000000000, %.flt47, !taffo.info !380
  %.flt47.fallback.s10_22fixp = fptosi float %84 to i32, !taffo.info !380
  %85 = load i16, i16* getelementptr inbounds ([4 x i16], [4 x i16]* @params_ct, i64 0, i64 3), align 2, !taffo.initweight !108, !taffo.info !1
  %86 = sext i16 %85 to i32, !taffo.initweight !110, !taffo.info !1
  %87 = load i16, i16* getelementptr inbounds ([4 x i16], [4 x i16]* @params_ct, i64 0, i64 2), align 2, !taffo.initweight !108, !taffo.info !1
  %88 = sext i16 %87 to i32, !taffo.initweight !110, !taffo.info !1
  %89 = sub nsw i32 %86, %88, !taffo.initweight !165, !taffo.info !1
  %s17_15fixp10 = shl i32 %89, 15, !taffo.info !392
  %90 = sext i32 %.flt47.fallback.s10_22fixp to i64, !taffo.info !380
  %91 = sext i32 %s17_15fixp10 to i64, !taffo.info !392
  %92 = mul i64 %90, %91, !taffo.info !394
  %93 = ashr i64 %92, 15, !taffo.info !394
  %s10_22fixp = trunc i64 %93 to i32, !taffo.info !380
  %s10_22fixp82 = add i32 4194304, %s10_22fixp, !taffo.info !380, !taffo.constinfo !300
  %94 = fmul float 0x4150000000000000, %83, !taffo.info !343
  %95 = fptosi float %94 to i32, !taffo.info !343
  %96 = sext i32 %95 to i64, !taffo.info !343
  %97 = sext i32 %s10_22fixp82 to i64, !taffo.info !380
  %98 = mul i64 %96, %97, !taffo.info !396
  %99 = ashr i64 %98, 22, !taffo.info !396
  %s10_22fixp94 = trunc i64 %99 to i32, !taffo.info !398
  %100 = sitofp i32 %s10_22fixp94 to float, !taffo.info !398
  %101 = fdiv float %100, 0x4150000000000000, !taffo.info !398
  %102 = getelementptr inbounds [4 x float], [4 x float]* %10, i64 0, i64 3, !taffo.initweight !107, !taffo.info !343
  store float %101, float* %102, align 4, !taffo.info !343
  %103 = getelementptr inbounds i16, i16* %0, i64 778
  %104 = load i16, i16* %103, align 2
  %105 = uitofp i16 %104 to float
  %106 = fcmp ogt float %105, 3.276700e+04, !taffo.initweight !108, !taffo.info !343
  br i1 %106, label %107, label %109, !taffo.initweight !110, !taffo.info !343

107:                                              ; preds = %4
  %108 = fsub float %105, 6.553600e+04, !taffo.initweight !108, !taffo.info !343, !taffo.constinfo !399
  br label %109

109:                                              ; preds = %4, %107
  %.06 = phi float [ %108, %107 ], [ %105, %4 ]
  %110 = load i16, i16* @params_gainEE, align 2, !taffo.initweight !107, !taffo.info !1
  %111 = sext i16 %110 to i32, !taffo.initweight !108, !taffo.info !1
  %s17_15fixp = shl i32 %111, 15, !taffo.info !392
  %112 = fmul float 3.276800e+04, %.06, !taffo.info !402
  %113 = fptosi float %112 to i32, !taffo.info !402
  %114 = sext i32 %s17_15fixp to i64, !taffo.info !392
  %115 = shl i64 %114, 15, !taffo.info !392
  %116 = sext i32 %113 to i64, !taffo.info !402
  %117 = sdiv i64 %115, %116, !taffo.info !403
  %s17_15fixp32 = trunc i64 %117 to i32, !taffo.info !402
  %118 = sitofp i32 %s17_15fixp32 to double, !taffo.info !402
  %119 = fdiv double %118, 3.276800e+04, !taffo.info !402
  %120 = getelementptr inbounds i16, i16* %0, i64 832
  %121 = load i16, i16* %120, align 2
  %122 = zext i16 %121 to i32
  %123 = and i32 %122, 4096, !taffo.constinfo !90
  %124 = ashr i32 %123, 5, !taffo.constinfo !90
  %125 = trunc i32 %124 to i8
  %126 = getelementptr inbounds i16, i16* %0, i64 776
  %127 = load i16, i16* %126, align 2
  %128 = uitofp i16 %127 to float
  %129 = getelementptr inbounds [2 x float], [2 x float]* %9, i64 0, i64 0, !taffo.initweight !107, !taffo.info !343
  store float %128, float* %129, align 4, !taffo.info !343
  %130 = getelementptr inbounds i16, i16* %0, i64 808
  %131 = load i16, i16* %130, align 2
  %132 = uitofp i16 %131 to float
  %133 = getelementptr inbounds [2 x float], [2 x float]* %9, i64 0, i64 1, !taffo.initweight !107, !taffo.info !343
  store float %132, float* %133, align 4, !taffo.info !343
  br label %134

134:                                              ; preds = %162, %109
  %.01 = phi i32 [ 0, %109 ], [ %163, %162 ]
  %135 = icmp slt i32 %.01, 2
  br i1 %135, label %136, label %164

136:                                              ; preds = %134
  %137 = sext i32 %.01 to i64
  %138 = getelementptr inbounds [2 x float], [2 x float]* %9, i64 0, i64 %137, !taffo.initweight !107, !taffo.info !343
  %139 = load float, float* %138, align 4, !taffo.initweight !108, !taffo.info !343
  %140 = fcmp ogt float %139, 3.276700e+04, !taffo.initweight !110, !taffo.info !343
  br i1 %140, label %141, label %148, !taffo.initweight !165, !taffo.info !343

141:                                              ; preds = %136
  %142 = sext i32 %.01 to i64
  %143 = getelementptr inbounds [2 x float], [2 x float]* %9, i64 0, i64 %142, !taffo.initweight !107, !taffo.info !343
  %144 = load float, float* %143, align 4, !taffo.initweight !108, !taffo.info !343
  %145 = fsub float %144, 6.553600e+04, !taffo.initweight !110, !taffo.info !343, !taffo.constinfo !399
  %146 = sext i32 %.01 to i64
  %147 = getelementptr inbounds [2 x float], [2 x float]* %9, i64 0, i64 %146, !taffo.initweight !107, !taffo.info !343
  store float %145, float* %147, align 4, !taffo.info !343
  br label %148

148:                                              ; preds = %136, %141
  %149 = sext i32 %.01 to i64
  %150 = getelementptr inbounds [2 x float], [2 x float]* %9, i64 0, i64 %149, !taffo.initweight !107, !taffo.info !343
  %151 = load float, float* %150, align 4, !taffo.initweight !108, !taffo.info !343
  %152 = fmul float 3.276800e+04, %151, !taffo.info !343
  %153 = fptosi float %152 to i32, !taffo.info !343
  %154 = sext i32 %153 to i64, !taffo.info !343
  %155 = sext i32 %s17_15fixp32 to i64, !taffo.info !402
  %156 = mul i64 %154, %155, !taffo.info !405
  %157 = ashr i64 %156, 15, !taffo.info !405
  %s17_15fixp57 = trunc i64 %157 to i32, !taffo.info !402
  %158 = sitofp i32 %s17_15fixp57 to float, !taffo.info !402
  %159 = fdiv float %158, 3.276800e+04, !taffo.info !402
  %160 = sext i32 %.01 to i64
  %161 = getelementptr inbounds [2 x float], [2 x float]* %9, i64 0, i64 %160, !taffo.initweight !107, !taffo.info !343
  store float %159, float* %161, align 4, !taffo.info !343
  br label %162

162:                                              ; preds = %148
  %163 = add nsw i32 %.01, 1, !taffo.constinfo !90
  br label %134, !llvm.loop !407

164:                                              ; preds = %134
  %165 = getelementptr inbounds [2 x float], [2 x float]* %9, i64 0, i64 0, !taffo.initweight !107, !taffo.info !343
  %166 = load float, float* %165, align 4, !taffo.initweight !108, !taffo.info !343
  %167 = fpext float %166 to double, !taffo.initweight !110, !taffo.info !343
  %168 = load i16, i16* getelementptr inbounds ([2 x i16], [2 x i16]* @params_cpOffset, i64 0, i64 0), align 2, !taffo.initweight !108, !taffo.info !1
  %169 = sext i16 %168 to i32, !taffo.initweight !110, !taffo.info !1
  %s17_15fixp11 = shl i32 %169, 15, !taffo.info !392
  %u8_24fixp27 = load i32, i32* @params_cpKta.fixp, align 4, !taffo.info !21
  %170 = fmul float 6.553600e+04, %14, !taffo.info !363, !taffo.constinfo !90
  %171 = fptosi float %170 to i32, !taffo.info !363
  %s16_16fixp14 = sub i32 %171, 1638400, !taffo.info !363, !taffo.constinfo !408
  %172 = zext i32 %u8_24fixp27 to i64, !taffo.info !21
  %173 = sext i32 %s16_16fixp14 to i64, !taffo.info !363
  %174 = mul i64 %172, %173, !taffo.info !411
  %175 = lshr i64 %174, 16, !taffo.info !411
  %u8_24fixp44 = trunc i64 %175 to i32, !taffo.info !21
  %u8_24fixp66 = add i32 16777216, %u8_24fixp44, !taffo.info !21, !taffo.constinfo !300
  %176 = sext i32 %s17_15fixp11 to i64, !taffo.info !392
  %177 = zext i32 %u8_24fixp66 to i64, !taffo.info !21
  %178 = mul i64 %176, %177, !taffo.info !413
  %179 = lshr i64 %178, 15, !taffo.info !413
  %u8_24fixp80 = trunc i64 %179 to i32, !taffo.info !21
  %s9_23fixp92 = lshr i32 %u8_24fixp80, 1, !taffo.info !415
  %s9_23fixp25 = load i32, i32* @params_cpKv.fixp, align 4, !taffo.info !19
  %180 = fmul float 6.553600e+04, %13, !taffo.info !363, !taffo.constinfo !90
  %s16_16fixp15 = fptosi float %180 to i32, !taffo.info !363
  %s16_16fixp37 = sub i32 %s16_16fixp15, 216268, !taffo.info !363, !taffo.constinfo !416
  %181 = sext i32 %s9_23fixp25 to i64, !taffo.info !19
  %182 = sext i32 %s16_16fixp37 to i64, !taffo.info !363
  %183 = mul i64 %181, %182, !taffo.info !419
  %184 = ashr i64 %183, 16, !taffo.info !419
  %s9_23fixp63 = trunc i64 %184 to i32, !taffo.info !19
  %s9_23fixp78 = add i32 8388608, %s9_23fixp63, !taffo.info !19, !taffo.constinfo !300
  %185 = sext i32 %s9_23fixp92 to i64, !taffo.info !415
  %186 = sext i32 %s9_23fixp78 to i64, !taffo.info !19
  %187 = mul i64 %185, %186, !taffo.info !421
  %188 = ashr i64 %187, 23, !taffo.info !421
  %s9_23fixp103 = trunc i64 %188 to i32, !taffo.info !19
  %189 = fmul double 0x4160000000000000, %167, !taffo.info !343
  %190 = fptosi double %189 to i32, !taffo.info !343
  %s9_23fixp112 = sub i32 %190, %s9_23fixp103, !taffo.info !423
  %191 = sitofp i32 %s9_23fixp112 to float, !taffo.info !423
  %192 = fdiv float %191, 0x4160000000000000, !taffo.info !423
  %193 = getelementptr inbounds [2 x float], [2 x float]* %9, i64 0, i64 0, !taffo.initweight !107, !taffo.info !343
  store float %192, float* %193, align 4, !taffo.info !343
  %194 = zext i8 %125 to i32
  %195 = load i8, i8* @params_calibrationModeEE, align 1
  %196 = zext i8 %195 to i32
  %197 = icmp eq i32 %194, %196
  br i1 %197, label %198, label %228

198:                                              ; preds = %164
  %199 = getelementptr inbounds [2 x float], [2 x float]* %9, i64 0, i64 1, !taffo.initweight !107, !taffo.info !343
  %200 = load float, float* %199, align 4, !taffo.initweight !108, !taffo.info !343
  %201 = fpext float %200 to double, !taffo.initweight !110, !taffo.info !343
  %202 = load i16, i16* getelementptr inbounds ([2 x i16], [2 x i16]* @params_cpOffset, i64 0, i64 1), align 2, !taffo.initweight !108, !taffo.info !1
  %203 = sext i16 %202 to i32, !taffo.initweight !110, !taffo.info !1
  %s17_15fixp20 = shl i32 %203, 15, !taffo.info !392
  %u8_24fixp26 = load i32, i32* @params_cpKta.fixp, align 4, !taffo.info !21
  %204 = fmul float 6.553600e+04, %14, !taffo.info !363, !taffo.constinfo !90
  %205 = fptosi float %204 to i32, !taffo.info !363
  %s16_16fixp19 = sub i32 %205, 1638400, !taffo.info !363, !taffo.constinfo !408
  %206 = zext i32 %u8_24fixp26 to i64, !taffo.info !21
  %207 = sext i32 %s16_16fixp19 to i64, !taffo.info !363
  %208 = mul i64 %206, %207, !taffo.info !411
  %209 = lshr i64 %208, 16, !taffo.info !411
  %u8_24fixp43 = trunc i64 %209 to i32, !taffo.info !21
  %u8_24fixp65 = add i32 16777216, %u8_24fixp43, !taffo.info !21, !taffo.constinfo !300
  %210 = sext i32 %s17_15fixp20 to i64, !taffo.info !392
  %211 = zext i32 %u8_24fixp65 to i64, !taffo.info !21
  %212 = mul i64 %210, %211, !taffo.info !413
  %213 = lshr i64 %212, 15, !taffo.info !413
  %u8_24fixp79 = trunc i64 %213 to i32, !taffo.info !21
  %s9_23fixp91 = lshr i32 %u8_24fixp79, 1, !taffo.info !415
  %s9_23fixp24 = load i32, i32* @params_cpKv.fixp, align 4, !taffo.info !19
  %214 = fmul float 6.553600e+04, %13, !taffo.info !363, !taffo.constinfo !90
  %s16_16fixp1 = fptosi float %214 to i32, !taffo.info !363
  %s16_16fixp33 = sub i32 %s16_16fixp1, 216268, !taffo.info !363, !taffo.constinfo !416
  %215 = sext i32 %s9_23fixp24 to i64, !taffo.info !19
  %216 = sext i32 %s16_16fixp33 to i64, !taffo.info !363
  %217 = mul i64 %215, %216, !taffo.info !419
  %218 = ashr i64 %217, 16, !taffo.info !419
  %s9_23fixp62 = trunc i64 %218 to i32, !taffo.info !19
  %s9_23fixp77 = add i32 8388608, %s9_23fixp62, !taffo.info !19, !taffo.constinfo !300
  %219 = sext i32 %s9_23fixp91 to i64, !taffo.info !415
  %220 = sext i32 %s9_23fixp77 to i64, !taffo.info !19
  %221 = mul i64 %219, %220, !taffo.info !421
  %222 = ashr i64 %221, 23, !taffo.info !421
  %s9_23fixp102 = trunc i64 %222 to i32, !taffo.info !19
  %223 = fmul double 0x4160000000000000, %201, !taffo.info !343
  %224 = fptosi double %223 to i32, !taffo.info !343
  %s9_23fixp111 = sub i32 %224, %s9_23fixp102, !taffo.info !423
  %225 = sitofp i32 %s9_23fixp111 to float, !taffo.info !423
  %226 = fdiv float %225, 0x4160000000000000, !taffo.info !423
  %227 = getelementptr inbounds [2 x float], [2 x float]* %9, i64 0, i64 1, !taffo.initweight !107, !taffo.info !343
  store float %226, float* %227, align 4, !taffo.info !343
  br label %261

228:                                              ; preds = %164
  %229 = getelementptr inbounds [2 x float], [2 x float]* %9, i64 0, i64 1, !taffo.initweight !107, !taffo.info !343
  %230 = load float, float* %229, align 4, !taffo.initweight !108, !taffo.info !343
  %231 = fpext float %230 to double, !taffo.initweight !110, !taffo.info !343
  %232 = load i16, i16* getelementptr inbounds ([2 x i16], [2 x i16]* @params_cpOffset, i64 0, i64 1), align 2, !taffo.initweight !108, !taffo.info !1
  %233 = sext i16 %232 to i32, !taffo.initweight !110, !taffo.info !1
  %s17_15fixp5 = shl i32 %233, 15, !taffo.info !392
  %234 = load float, float* getelementptr inbounds ([3 x float], [3 x float]* @params_ilChessC, i64 0, i64 0), align 4, !taffo.initweight !108, !taffo.info !343
  %235 = fmul float 3.276800e+04, %234, !taffo.info !343
  %236 = fptosi float %235 to i32, !taffo.info !343
  %s17_15fixp72 = add i32 %s17_15fixp5, %236, !taffo.info !402
  %u8_24fixp = load i32, i32* @params_cpKta.fixp, align 4, !taffo.info !21
  %237 = fmul float 6.553600e+04, %14, !taffo.info !363, !taffo.constinfo !90
  %238 = fptosi float %237 to i32, !taffo.info !363
  %s16_16fixp13 = sub i32 %238, 1638400, !taffo.info !363, !taffo.constinfo !408
  %239 = zext i32 %u8_24fixp to i64, !taffo.info !21
  %240 = sext i32 %s16_16fixp13 to i64, !taffo.info !363
  %241 = mul i64 %239, %240, !taffo.info !411
  %242 = lshr i64 %241, 16, !taffo.info !411
  %u8_24fixp42 = trunc i64 %242 to i32, !taffo.info !21
  %u8_24fixp64 = add i32 16777216, %u8_24fixp42, !taffo.info !21, !taffo.constinfo !300
  %243 = sext i32 %s17_15fixp72 to i64, !taffo.info !402
  %244 = zext i32 %u8_24fixp64 to i64, !taffo.info !21
  %245 = mul i64 %243, %244, !taffo.info !413
  %246 = lshr i64 %245, 15, !taffo.info !413
  %u8_24fixp88 = trunc i64 %246 to i32, !taffo.info !21
  %s9_23fixp99 = lshr i32 %u8_24fixp88, 1, !taffo.info !415
  %s9_23fixp = load i32, i32* @params_cpKv.fixp, align 4, !taffo.info !19
  %247 = fmul float 6.553600e+04, %13, !taffo.info !363, !taffo.constinfo !90
  %s16_16fixp16 = fptosi float %247 to i32, !taffo.info !363
  %s16_16fixp38 = sub i32 %s16_16fixp16, 216268, !taffo.info !363, !taffo.constinfo !416
  %248 = sext i32 %s9_23fixp to i64, !taffo.info !19
  %249 = sext i32 %s16_16fixp38 to i64, !taffo.info !363
  %250 = mul i64 %248, %249, !taffo.info !419
  %251 = ashr i64 %250, 16, !taffo.info !419
  %s9_23fixp61 = trunc i64 %251 to i32, !taffo.info !19
  %s9_23fixp76 = add i32 8388608, %s9_23fixp61, !taffo.info !19, !taffo.constinfo !300
  %252 = sext i32 %s9_23fixp99 to i64, !taffo.info !415
  %253 = sext i32 %s9_23fixp76 to i64, !taffo.info !19
  %254 = mul i64 %252, %253, !taffo.info !421
  %255 = ashr i64 %254, 23, !taffo.info !421
  %s9_23fixp108 = trunc i64 %255 to i32, !taffo.info !19
  %256 = fmul double 0x4160000000000000, %231, !taffo.info !343
  %257 = fptosi double %256 to i32, !taffo.info !343
  %s9_23fixp118 = sub i32 %257, %s9_23fixp108, !taffo.info !423
  %258 = sitofp i32 %s9_23fixp118 to float, !taffo.info !423
  %259 = fdiv float %258, 0x4160000000000000, !taffo.info !423
  %260 = getelementptr inbounds [2 x float], [2 x float]* %9, i64 0, i64 1, !taffo.initweight !107, !taffo.info !343
  store float %259, float* %260, align 4, !taffo.info !343
  br label %261

261:                                              ; preds = %228, %198
  br label %262

262:                                              ; preds = %626, %261
  %.0 = phi i32 [ 0, %261 ], [ %627, %626 ]
  %263 = icmp slt i32 %.0, 768
  br i1 %263, label %264, label %628

264:                                              ; preds = %262
  %265 = sdiv i32 %.0, 32, !taffo.constinfo !90
  %266 = sdiv i32 %.0, 64, !taffo.constinfo !90
  %267 = mul nsw i32 %266, 2, !taffo.constinfo !90
  %268 = sub nsw i32 %265, %267
  %269 = trunc i32 %268 to i8
  %270 = sext i8 %269 to i32
  %271 = sdiv i32 %.0, 2, !taffo.constinfo !90
  %272 = mul nsw i32 %271, 2, !taffo.constinfo !90
  %273 = sub nsw i32 %.0, %272
  %274 = xor i32 %270, %273
  %275 = trunc i32 %274 to i8
  %276 = add nsw i32 %.0, 2, !taffo.constinfo !90
  %277 = sdiv i32 %276, 4, !taffo.constinfo !90
  %278 = add nsw i32 %.0, 3, !taffo.constinfo !90
  %279 = sdiv i32 %278, 4, !taffo.constinfo !90
  %280 = sub nsw i32 %277, %279
  %281 = add nsw i32 %.0, 1, !taffo.constinfo !90
  %282 = sdiv i32 %281, 4, !taffo.constinfo !90
  %283 = add nsw i32 %280, %282
  %284 = sdiv i32 %.0, 4, !taffo.constinfo !90
  %285 = sub nsw i32 %283, %284
  %286 = sext i8 %269 to i32
  %287 = mul nsw i32 2, %286, !taffo.constinfo !90
  %288 = sub nsw i32 1, %287, !taffo.constinfo !90
  %289 = mul nsw i32 %285, %288
  %290 = trunc i32 %289 to i8
  %291 = zext i8 %125 to i32
  %292 = icmp eq i32 %291, 0
  br i1 %292, label %293, label %294

293:                                              ; preds = %264
  br label %295

294:                                              ; preds = %264
  br label %295

295:                                              ; preds = %294, %293
  %.03 = phi i8 [ %269, %293 ], [ %275, %294 ]
  %296 = sext i8 %.03 to i32
  %297 = getelementptr inbounds i16, i16* %0, i64 833
  %298 = load i16, i16* %297, align 2
  %299 = zext i16 %298 to i32
  %300 = icmp eq i32 %296, %299
  br i1 %300, label %301, label %625

301:                                              ; preds = %295
  %302 = sext i32 %.0 to i64
  %303 = getelementptr inbounds i16, i16* %0, i64 %302
  %304 = load i16, i16* %303, align 2
  %305 = uitofp i16 %304 to float
  %306 = fcmp ogt float %305, 3.276700e+04
  br i1 %306, label %307, label %309

307:                                              ; preds = %301
  %308 = fsub float %305, 6.553600e+04, !taffo.constinfo !399
  br label %309

309:                                              ; preds = %307, %301
  %.04 = phi float [ %308, %307 ], [ %305, %301 ]
  %310 = fpext float %.04 to double
  %311 = call i32 (i8*, ...) @printf(i8* getelementptr inbounds ([19 x i8], [19 x i8]* @.str.30, i64 0, i64 0), double %310), !taffo.constinfo !95
  %312 = fmul float 8.192000e+03, %.04, !taffo.info !424
  %313 = fptosi float %312 to i32, !taffo.info !424
  %314 = sext i32 %313 to i64, !taffo.info !424
  %315 = sext i32 %s17_15fixp32 to i64, !taffo.info !402
  %316 = mul i64 %314, %315, !taffo.info !425
  %317 = ashr i64 %316, 15, !taffo.info !425
  %s19_13fixp56 = trunc i64 %317 to i32, !taffo.info !424
  %318 = sitofp i32 %s19_13fixp56 to float, !taffo.info !424
  %319 = fdiv float %318, 8.192000e+03, !taffo.info !424
  %320 = fpext float %319 to double
  %321 = call i32 (i8*, ...) @printf(i8* getelementptr inbounds ([19 x i8], [19 x i8]* @.str.31, i64 0, i64 0), double %320), !taffo.constinfo !95
  %322 = fmul float 6.553600e+04, %14, !taffo.info !363, !taffo.constinfo !90
  %323 = fptosi float %322 to i32, !taffo.info !363
  %s16_16fixp6 = sub i32 %323, 1638400, !taffo.info !365, !taffo.constinfo !408
  %324 = sitofp i32 %s16_16fixp6 to double, !taffo.info !365
  %325 = fdiv double %324, 6.553600e+04, !taffo.info !365, !taffo.constinfo !408
  %326 = fmul float 6.553600e+04, %14, !taffo.info !363, !taffo.constinfo !90
  %s16_16fixp7 = fptosi float %326 to i32, !taffo.info !363
  %327 = sitofp i32 %s16_16fixp7 to double, !taffo.info !363
  %328 = fdiv double %327, 6.553600e+04, !taffo.info !363
  %.flt36 = call i32 (i8*, ...) @printf(i8* getelementptr inbounds ([10 x i8], [10 x i8]* @.str.32, i64 0, i64 0), double %328), !taffo.initweight !110, !taffo.info !365, !taffo.constinfo !95
  %.flt58 = call i32 (i8*, ...) @printf(i8* getelementptr inbounds ([11 x i8], [11 x i8]* @.str.33, i64 0, i64 0), double %325), !taffo.initweight !110, !taffo.info !365, !taffo.constinfo !95
  %329 = sext i32 %.0 to i64
  %s19_13fixp28 = getelementptr inbounds [768 x i32], [768 x i32]* @params_kta.fixp, i64 0, i64 %329, !taffo.info !35
  %s19_13fixp52 = load i32, i32* %s19_13fixp28, align 4, !taffo.info !35
  %330 = sext i32 %s16_16fixp6 to i64, !taffo.info !365
  %331 = sext i32 %s19_13fixp52 to i64, !taffo.info !35
  %332 = mul i64 %330, %331, !taffo.info !427
  %333 = ashr i64 %332, 16, !taffo.info !427
  %s19_13fixp70 = trunc i64 %333 to i32, !taffo.info !265
  %334 = sitofp i32 %s19_13fixp70 to double, !taffo.info !265
  %335 = fdiv double %334, 8.192000e+03, !taffo.info !265
  %.flt97 = call i32 (i8*, ...) @printf(i8* getelementptr inbounds ([11 x i8], [11 x i8]* @.str.34, i64 0, i64 0), double %335), !taffo.initweight !110, !taffo.info !265, !taffo.constinfo !95
  %s19_13fixp86 = add i32 8192, %s19_13fixp70, !taffo.info !265, !taffo.constinfo !300
  %336 = sitofp i32 %s19_13fixp86 to double, !taffo.info !265
  %337 = fdiv double %336, 8.192000e+03, !taffo.info !265, !taffo.constinfo !300
  %.flt105 = call i32 (i8*, ...) @printf(i8* getelementptr inbounds ([11 x i8], [11 x i8]* @.str.35, i64 0, i64 0), double %337), !taffo.initweight !110, !taffo.info !265, !taffo.constinfo !95
  %338 = sext i32 %.0 to i64
  %339 = getelementptr inbounds [768 x i16], [768 x i16]* @params_offset, i64 0, i64 %338, !taffo.initweight !107, !taffo.info !1
  %340 = load i16, i16* %339, align 2, !taffo.initweight !108, !taffo.info !1
  %341 = sext i16 %340 to i32, !taffo.initweight !110, !taffo.info !1
  %s19_13fixp = shl i32 %341, 13, !taffo.info !429
  %342 = sext i32 %s19_13fixp86 to i64, !taffo.info !265
  %343 = sext i32 %s19_13fixp to i64, !taffo.info !429
  %344 = mul i64 %342, %343, !taffo.info !372
  %345 = ashr i64 %344, 13, !taffo.info !372
  %s19_13fixp96 = trunc i64 %345 to i32, !taffo.info !265
  %346 = sitofp i32 %s19_13fixp96 to double, !taffo.info !265
  %347 = fdiv double %346, 8.192000e+03, !taffo.info !265
  %.flt115 = call i32 (i8*, ...) @printf(i8* getelementptr inbounds ([11 x i8], [11 x i8]* @.str.36, i64 0, i64 0), double %347), !taffo.initweight !110, !taffo.info !265, !taffo.constinfo !95
  %348 = sext i32 %.0 to i64
  %349 = getelementptr inbounds [768 x i16], [768 x i16]* @params_offset, i64 0, i64 %348, !taffo.initweight !107, !taffo.info !1
  %350 = load i16, i16* %349, align 2, !taffo.initweight !108, !taffo.info !1
  %351 = sext i16 %350 to i32, !taffo.initweight !110, !taffo.info !1
  %352 = call i32 (i8*, ...) @printf(i8* getelementptr inbounds ([18 x i8], [18 x i8]* @.str.37, i64 0, i64 0), i32 %351), !taffo.initweight !165, !taffo.info !1, !taffo.constinfo !95
  %353 = fmul float 6.553600e+04, %13, !taffo.info !363, !taffo.constinfo !90
  %s16_16fixp18 = fptosi float %353 to i32, !taffo.info !363
  %s16_16fixp40 = sub i32 %s16_16fixp18, 216268, !taffo.info !363, !taffo.constinfo !416
  %354 = sitofp i32 %s16_16fixp40 to float, !taffo.info !363
  %355 = fdiv float %354, 6.553600e+04, !taffo.info !363, !taffo.constinfo !416
  %356 = fpext float %355 to double
  %357 = call i32 (i8*, ...) @printf(i8* getelementptr inbounds ([11 x i8], [11 x i8]* @.str.38, i64 0, i64 0), double %356), !taffo.constinfo !95
  %358 = sext i32 %.0 to i64
  %s5_27fixp29 = getelementptr inbounds [768 x i32], [768 x i32]* @params_kv.fixp, i64 0, i64 %358, !taffo.info !38
  %s5_27fixp53 = load i32, i32* %s5_27fixp29, align 4, !taffo.info !38
  %359 = sext i32 %s16_16fixp40 to i64, !taffo.info !363
  %360 = sext i32 %s5_27fixp53 to i64, !taffo.info !38
  %361 = mul i64 %359, %360, !taffo.info !430
  %362 = ashr i64 %361, 16, !taffo.info !430
  %s5_27fixp75 = trunc i64 %362 to i32, !taffo.info !38
  %363 = sitofp i32 %s5_27fixp75 to float, !taffo.info !38
  %364 = fdiv float %363, 0x41A0000000000000, !taffo.info !38
  %365 = sitofp i32 %s5_27fixp75 to float, !taffo.info !38
  %366 = fdiv float %365, 0x41A0000000000000, !taffo.info !38
  %367 = fpext float %364 to double
  %368 = call i32 (i8*, ...) @printf(i8* getelementptr inbounds ([11 x i8], [11 x i8]* @.str.39, i64 0, i64 0), double %367), !taffo.constinfo !95
  %369 = fadd float 1.000000e+00, %366, !taffo.constinfo !300
  %370 = fpext float %369 to double, !taffo.initweight !108, !taffo.info !343
  %371 = call i32 (i8*, ...) @printf(i8* getelementptr inbounds ([11 x i8], [11 x i8]* @.str.40, i64 0, i64 0), double %370), !taffo.initweight !110, !taffo.info !343, !taffo.constinfo !95
  %372 = fmul float 8.192000e+03, %369, !taffo.info !265, !taffo.constinfo !300
  %373 = fptosi float %372 to i32, !taffo.info !265
  %374 = sext i32 %373 to i64, !taffo.info !265
  %375 = sext i32 %s19_13fixp86 to i64, !taffo.info !265
  %376 = mul i64 %374, %375, !taffo.info !372
  %377 = ashr i64 %376, 13, !taffo.info !372
  %s19_13fixp101 = trunc i64 %377 to i32, !taffo.info !265
  %378 = sitofp i32 %s19_13fixp101 to double, !taffo.info !265
  %379 = fdiv double %378, 8.192000e+03, !taffo.info !265
  %.flt122 = call i32 (i8*, ...) @printf(i8* getelementptr inbounds ([11 x i8], [11 x i8]* @.str.41, i64 0, i64 0), double %379), !taffo.initweight !110, !taffo.info !265, !taffo.constinfo !95
  %380 = sext i32 %.0 to i64
  %381 = getelementptr inbounds [768 x i16], [768 x i16]* @params_offset, i64 0, i64 %380, !taffo.initweight !107, !taffo.info !1
  %382 = load i16, i16* %381, align 2, !taffo.initweight !108, !taffo.info !1
  %383 = sext i16 %382 to i32, !taffo.initweight !110, !taffo.info !1
  %s19_13fixp8 = shl i32 %383, 13, !taffo.info !429
  %384 = sext i32 %s19_13fixp101 to i64, !taffo.info !265
  %385 = sext i32 %s19_13fixp8 to i64, !taffo.info !429
  %386 = mul i64 %384, %385, !taffo.info !372
  %387 = ashr i64 %386, 13, !taffo.info !372
  %s19_13fixp110 = trunc i64 %387 to i32, !taffo.info !265
  %388 = sitofp i32 %s19_13fixp110 to double, !taffo.info !265
  %389 = fdiv double %388, 8.192000e+03, !taffo.info !265
  %.flt128 = call i32 (i8*, ...) @printf(i8* getelementptr inbounds ([11 x i8], [11 x i8]* @.str.42, i64 0, i64 0), double %389), !taffo.initweight !110, !taffo.info !265, !taffo.constinfo !95
  %s19_13fixp121 = sub i32 %s19_13fixp56, %s19_13fixp110, !taffo.info !265
  %390 = sitofp i32 %s19_13fixp121 to float, !taffo.info !265
  %391 = fdiv float %390, 8.192000e+03, !taffo.info !265
  %392 = fpext float %391 to double
  %393 = call i32 (i8*, ...) @printf(i8* getelementptr inbounds ([19 x i8], [19 x i8]* @.str.43, i64 0, i64 0), double %392), !taffo.constinfo !95
  %394 = zext i8 %125 to i32
  %395 = load i8, i8* @params_calibrationModeEE, align 1
  %396 = zext i8 %395 to i32
  %397 = icmp ne i32 %394, %396
  br i1 %397, label %398, label %413

398:                                              ; preds = %309
  %399 = load float, float* getelementptr inbounds ([3 x float], [3 x float]* @params_ilChessC, i64 0, i64 2), align 4, !taffo.initweight !108, !taffo.info !343
  %400 = sext i8 %269 to i32
  %401 = mul nsw i32 2, %400, !taffo.constinfo !90
  %402 = sub nsw i32 %401, 1, !taffo.constinfo !90
  %403 = sitofp i32 %402 to float
  %404 = fmul float %399, %403, !taffo.initweight !110, !taffo.info !343
  %405 = fmul float 8.192000e+03, %404, !taffo.info !343
  %406 = fptosi float %405 to i32, !taffo.info !343
  %s19_13fixp127 = add i32 %s19_13fixp121, %406, !taffo.info !265
  %407 = load float, float* getelementptr inbounds ([3 x float], [3 x float]* @params_ilChessC, i64 0, i64 1), align 4, !taffo.initweight !108, !taffo.info !343
  %408 = sext i8 %290 to i32
  %409 = sitofp i32 %408 to float
  %410 = fmul float %407, %409, !taffo.initweight !110, !taffo.info !343
  %411 = fmul float 8.192000e+03, %410, !taffo.info !343
  %412 = fptosi float %411 to i32, !taffo.info !343
  %s19_13fixp133 = sub i32 %s19_13fixp127, %412, !taffo.info !265
  br label %413

413:                                              ; preds = %398, %309
  %.15.s19_13fixp = phi i32 [ %s19_13fixp133, %398 ], [ %s19_13fixp121, %309 ], !taffo.info !265
  %414 = sext i32 %.15.s19_13fixp to i64, !taffo.info !265
  %415 = shl i64 %414, 13, !taffo.info !265
  %416 = sext i32 %8 to i64, !taffo.info !343
  %417 = sdiv i64 %415, %416, !taffo.info !431
  %s19_13fixp9 = trunc i64 %417 to i32, !taffo.info !265
  %s5_27fixp23 = load i32, i32* @params_tgc.fixp, align 4, !taffo.info !16
  %418 = zext i16 %12 to i64
  %419 = getelementptr inbounds [2 x float], [2 x float]* %9, i64 0, i64 %418, !taffo.initweight !107, !taffo.info !343
  %420 = load float, float* %419, align 4, !taffo.initweight !108, !taffo.info !343
  %421 = fmul float 0x41A0000000000000, %420, !taffo.info !343
  %422 = fptosi float %421 to i32, !taffo.info !343
  %423 = sext i32 %s5_27fixp23 to i64, !taffo.info !16
  %424 = sext i32 %422 to i64, !taffo.info !343
  %425 = mul i64 %423, %424, !taffo.info !432
  %426 = ashr i64 %425, 27, !taffo.info !432
  %s5_27fixp41 = trunc i64 %426 to i32, !taffo.info !16
  %427 = shl i32 %s19_13fixp9, 14, !taffo.info !265
  %s5_27fixp60 = sub i32 %427, %s5_27fixp41, !taffo.info !16
  %428 = sitofp i32 %s5_27fixp60 to float, !taffo.info !16
  %429 = fdiv float %428, 0x41A0000000000000, !taffo.info !16
  %430 = sitofp i32 %s5_27fixp60 to float, !taffo.info !16
  %431 = fdiv float %430, 0x41A0000000000000, !taffo.info !16
  %s5_27fixp22 = load i32, i32* @params_tgc.fixp, align 4, !taffo.info !16
  %432 = zext i16 %12 to i64
  %s12_20fixp31 = getelementptr inbounds [2 x i32], [2 x i32]* @params_cpAlpha.fixp, i64 0, i64 %432, !taffo.info !40
  %s12_20fixp55 = load i32, i32* %s12_20fixp31, align 4, !taffo.info !40
  %433 = sext i32 %s5_27fixp22 to i64, !taffo.info !16
  %434 = sext i32 %s12_20fixp55 to i64, !taffo.info !40
  %435 = mul i64 %433, %434, !taffo.info !434
  %436 = ashr i64 %435, 20, !taffo.info !434
  %s5_27fixp71 = trunc i64 %436 to i32, !taffo.info !16
  %437 = sitofp i32 %s5_27fixp71 to float, !taffo.info !16
  %438 = fdiv float %437, 0x41A0000000000000, !taffo.info !16
  %439 = sitofp i32 %s5_27fixp71 to float, !taffo.info !16
  %440 = fdiv float %439, 0x41A0000000000000, !taffo.info !16
  %s5_27fixp = load i32, i32* @params_tgc.fixp, align 4, !taffo.info !16
  %441 = sitofp i32 %s5_27fixp to double, !taffo.info !16
  %442 = fdiv double %441, 0x41A0000000000000, !taffo.info !16
  %.flt59 = call i32 (i8*, ...) @printf(i8* getelementptr inbounds ([11 x i8], [11 x i8]* @.str.44, i64 0, i64 0), double %442), !taffo.initweight !110, !taffo.info !436, !taffo.constinfo !95
  %443 = zext i16 %12 to i64
  %s12_20fixp30 = getelementptr inbounds [2 x i32], [2 x i32]* @params_cpAlpha.fixp, i64 0, i64 %443, !taffo.info !40
  %s12_20fixp54 = load i32, i32* %s12_20fixp30, align 4, !taffo.info !40
  %444 = sitofp i32 %s12_20fixp54 to double, !taffo.info !40
  %445 = fdiv double %444, 0x4130000000000000, !taffo.info !40
  %.flt87 = call i32 (i8*, ...) @printf(i8* getelementptr inbounds ([16 x i8], [16 x i8]* @.str.45, i64 0, i64 0), double %445), !taffo.initweight !165, !taffo.info !437, !taffo.constinfo !95
  %446 = fpext float %438 to double
  %447 = call i32 (i8*, ...) @printf(i8* getelementptr inbounds ([10 x i8], [10 x i8]* @.str.46, i64 0, i64 0), double %446), !taffo.constinfo !95
  %448 = sext i32 %.0 to i64
  %449 = getelementptr inbounds [768 x float], [768 x float]* @params_alpha, i64 0, i64 %448
  %450 = load float, float* %449, align 4
  %451 = fsub float %450, %440
  %452 = sext i32 %.0 to i64
  %453 = getelementptr inbounds [768 x float], [768 x float]* @params_alpha, i64 0, i64 %452
  %454 = load float, float* %453, align 4
  %455 = fpext float %454 to double
  %456 = call i32 (i8*, ...) @printf(i8* getelementptr inbounds ([20 x i8], [20 x i8]* @.str.47, i64 0, i64 0), double %455), !taffo.constinfo !95
  %457 = fpext float %451 to double, !taffo.initweight !108, !taffo.info !343
  %458 = call i32 (i8*, ...) @printf(i8* getelementptr inbounds ([10 x i8], [10 x i8]* @.str.48, i64 0, i64 0), double %457), !taffo.initweight !110, !taffo.info !343, !taffo.constinfo !95
  %s2_30fixp = load i32, i32* @params_KsTa.fixp, align 4, !taffo.info !28
  %459 = fmul float 6.553600e+04, %14, !taffo.info !363, !taffo.constinfo !90
  %460 = fptosi float %459 to i32, !taffo.info !363
  %s16_16fixp4 = sub i32 %460, 1638400, !taffo.info !363, !taffo.constinfo !408
  %461 = sext i32 %s2_30fixp to i64, !taffo.info !28
  %462 = sext i32 %s16_16fixp4 to i64, !taffo.info !363
  %463 = mul i64 %461, %462, !taffo.info !438
  %464 = ashr i64 %463, 16, !taffo.info !438
  %s2_30fixp45 = trunc i64 %464 to i32, !taffo.info !439
  %465 = sitofp i32 %s2_30fixp45 to double, !taffo.info !439
  %466 = fdiv double %465, 0x41D0000000000000, !taffo.info !439
  %.flt81 = call i32 (i8*, ...) @printf(i8* getelementptr inbounds ([10 x i8], [10 x i8]* @.str.49, i64 0, i64 0), double %466), !taffo.initweight !110, !taffo.info !439, !taffo.constinfo !95
  %s2_30fixp67 = add i32 1073741824, %s2_30fixp45, !taffo.info !439, !taffo.constinfo !300
  %467 = sitofp i32 %s2_30fixp67 to double, !taffo.info !439
  %468 = fdiv double %467, 0x41D0000000000000, !taffo.info !439, !taffo.constinfo !300
  %.flt93 = call i32 (i8*, ...) @printf(i8* getelementptr inbounds ([10 x i8], [10 x i8]* @.str.50, i64 0, i64 0), double %468), !taffo.initweight !110, !taffo.info !439, !taffo.constinfo !95
  %469 = fmul float 0x41D0000000000000, %451, !taffo.info !439
  %470 = fptosi float %469 to i32, !taffo.info !439
  %471 = sext i32 %470 to i64, !taffo.info !439
  %472 = sext i32 %s2_30fixp67 to i64, !taffo.info !439
  %473 = mul i64 %471, %472, !taffo.info !440
  %474 = ashr i64 %473, 30, !taffo.info !440
  %s2_30fixp98 = trunc i64 %474 to i32, !taffo.info !28
  %475 = sitofp i32 %s2_30fixp98 to double, !taffo.info !28
  %476 = fdiv double %475, 0x41D0000000000000, !taffo.info !28
  %477 = fpext float %431 to double
  %478 = call i32 (i8*, ...) @printf(i8* getelementptr inbounds ([14 x i8], [14 x i8]* @.str.51, i64 0, i64 0), double %477), !taffo.constinfo !95
  %.flt73 = call i32 (i8*, ...) @printf(i8* getelementptr inbounds ([12 x i8], [12 x i8]* @.str.52, i64 0, i64 0), double %119), !taffo.initweight !110, !taffo.info !402, !taffo.constinfo !95
  %.flt117 = call i32 (i8*, ...) @printf(i8* getelementptr inbounds ([13 x i8], [13 x i8]* @.str.53, i64 0, i64 0), double %476), !taffo.initweight !110, !taffo.info !439, !taffo.constinfo !95
  %479 = sext i32 %s2_30fixp98 to i96, !taffo.info !28
  %480 = sext i64 %s38_26fixp125 to i96, !taffo.info !372
  %481 = mul i96 %479, %480, !taffo.info !442
  %482 = ashr i96 %481, 26, !taffo.info !442
  %s2_30fixp131 = trunc i96 %482 to i32, !taffo.info !439
  %483 = sitofp i32 %s2_30fixp131 to double, !taffo.info !439
  %484 = fdiv double %483, 0x41D0000000000000, !taffo.info !439
  %.flt139 = call i32 (i8*, ...) @printf(i8* getelementptr inbounds ([10 x i8], [10 x i8]* @.str.54, i64 0, i64 0), double %484), !taffo.initweight !110, !taffo.info !439, !taffo.constinfo !95
  %485 = ashr i32 %s2_30fixp131, 3, !taffo.info !439
  %s5_27fixp136 = add i32 %s5_27fixp60, %485, !taffo.info !436
  %486 = sitofp i32 %s5_27fixp136 to double, !taffo.info !436
  %487 = fdiv double %486, 0x41A0000000000000, !taffo.info !436
  %.flt141 = call i32 (i8*, ...) @printf(i8* getelementptr inbounds ([10 x i8], [10 x i8]* @.str.55, i64 0, i64 0), double %487), !taffo.initweight !110, !taffo.info !436, !taffo.constinfo !95
  %488 = sext i32 %s2_30fixp98 to i64, !taffo.info !439
  %489 = sext i32 %s2_30fixp98 to i64, !taffo.info !439
  %490 = mul i64 %488, %489, !taffo.info !444
  %491 = ashr i64 %490, 30, !taffo.info !444
  %s2_30fixp107 = trunc i64 %491 to i32, !taffo.info !28
  %492 = sext i32 %s2_30fixp107 to i64, !taffo.info !28
  %493 = sext i32 %s2_30fixp98 to i64, !taffo.info !28
  %494 = mul i64 %492, %493, !taffo.info !444
  %495 = ashr i64 %494, 30, !taffo.info !444
  %s2_30fixp116 = trunc i64 %495 to i32, !taffo.info !439
  %496 = sitofp i32 %s2_30fixp116 to double, !taffo.info !439
  %497 = fdiv double %496, 0x41D0000000000000, !taffo.info !439
  %.flt130 = call i32 (i8*, ...) @printf(i8* getelementptr inbounds ([10 x i8], [10 x i8]* @.str.56, i64 0, i64 0), double %497), !taffo.initweight !110, !taffo.info !439, !taffo.constinfo !95
  %498 = sext i32 %s2_30fixp116 to i64, !taffo.info !439
  %499 = sext i32 %s5_27fixp136 to i64, !taffo.info !436
  %500 = mul i64 %498, %499, !taffo.info !445
  %501 = ashr i64 %500, 30, !taffo.info !445
  %s5_27fixp138 = trunc i64 %501 to i32, !taffo.info !436
  %502 = sitofp i32 %s5_27fixp138 to double, !taffo.info !436
  %503 = fdiv double %502, 0x41A0000000000000, !taffo.info !436
  %504 = sitofp i32 %s5_27fixp138 to float, !taffo.info !436
  %505 = fdiv float %504, 0x41A0000000000000, !taffo.info !436
  %.flt143 = call i32 (i8*, ...) @printf(i8* getelementptr inbounds ([10 x i8], [10 x i8]* @.str.57, i64 0, i64 0), double %503), !taffo.initweight !110, !taffo.info !436, !taffo.constinfo !95
  %s5_27fixp140 = call i32 @_ZSt4sqrtf.1_s5_27fixp(float %505), !taffo.info !436, !taffo.constinfo !90
  %506 = sitofp i32 %s5_27fixp140 to float, !taffo.info !436
  %507 = fdiv float %506, 0x41A0000000000000, !taffo.info !436, !taffo.constinfo !90
  %s5_27fixp142 = call i32 @_ZSt4sqrtf.1_s5_27fixp(float %507), !taffo.info !436, !taffo.constinfo !90
  %.flt50 = load float, float* getelementptr inbounds ([4 x float], [4 x float]* @params_ksTo, i64 0, i64 1), align 4, !taffo.initweight !108, !taffo.info !380
  %508 = fmul float 0x4150000000000000, %.flt50, !taffo.info !380
  %.flt50.fallback.s10_22fixp = fptosi float %508 to i32, !taffo.info !380
  %509 = sext i32 %s5_27fixp142 to i64, !taffo.info !436
  %510 = sext i32 %.flt50.fallback.s10_22fixp to i64, !taffo.info !380
  %511 = mul i64 %509, %510, !taffo.info !447
  %512 = ashr i64 %511, 27, !taffo.info !447
  %s10_22fixp144 = trunc i64 %512 to i32, !taffo.info !380
  %s2_30fixp146 = shl i32 %s10_22fixp144, 8, !taffo.info !28
  %513 = sitofp i32 %s2_30fixp146 to double, !taffo.info !28
  %514 = fdiv double %513, 0x41D0000000000000, !taffo.info !28
  %.flt148 = call i32 (i8*, ...) @printf(i8* getelementptr inbounds ([10 x i8], [10 x i8]* @.str.58, i64 0, i64 0), double %514), !taffo.initweight !110, !taffo.info !439, !taffo.constinfo !95
  %.flt49 = load float, float* getelementptr inbounds ([4 x float], [4 x float]* @params_ksTo, i64 0, i64 1), align 4, !taffo.initweight !108, !taffo.info !380
  %515 = fmul float 0x4150000000000000, %.flt49, !taffo.info !380
  %.flt49.fallback.s10_22fixp = fptosi float %515 to i32, !taffo.info !380
  %516 = sext i32 %.flt49.fallback.s10_22fixp to i64, !taffo.info !380
  %517 = mul i64 %516, 2291348275, !taffo.info !449, !taffo.constinfo !451
  %518 = ashr i64 %517, 23, !taffo.info !449, !taffo.constinfo !451
  %s10_22fixp84 = trunc i64 %518 to i32, !taffo.info !398
  %519 = sitofp i32 %s10_22fixp84 to double, !taffo.info !398
  %520 = fdiv double %519, 0x4150000000000000, !taffo.info !398
  %.flt114 = call i32 (i8*, ...) @printf(i8* getelementptr inbounds ([10 x i8], [10 x i8]* @.str.59, i64 0, i64 0), double %520), !taffo.initweight !110, !taffo.info !398, !taffo.constinfo !95
  %s10_22fixp104 = sub i32 4194304, %s10_22fixp84, !taffo.info !398, !taffo.constinfo !300
  %521 = sitofp i32 %s10_22fixp104 to double, !taffo.info !398
  %522 = fdiv double %521, 0x4150000000000000, !taffo.info !398, !taffo.constinfo !300
  %.flt123 = call i32 (i8*, ...) @printf(i8* getelementptr inbounds ([10 x i8], [10 x i8]* @.str.60, i64 0, i64 0), double %522), !taffo.initweight !110, !taffo.info !398, !taffo.constinfo !95
  %523 = sext i32 %s2_30fixp98 to i64, !taffo.info !28
  %524 = sext i32 %s10_22fixp104 to i64, !taffo.info !398
  %525 = mul i64 %523, %524, !taffo.info !454
  %526 = ashr i64 %525, 22, !taffo.info !454
  %s2_30fixp113 = trunc i64 %526 to i32, !taffo.info !439
  %527 = sitofp i32 %s2_30fixp113 to double, !taffo.info !439
  %528 = fdiv double %527, 0x41D0000000000000, !taffo.info !439
  %.flt129 = call i32 (i8*, ...) @printf(i8* getelementptr inbounds ([10 x i8], [10 x i8]* @.str.61, i64 0, i64 0), double %528), !taffo.initweight !110, !taffo.info !439, !taffo.constinfo !95
  %529 = shl i32 %s10_22fixp144, 8, !taffo.info !380
  %s2_30fixp145 = add i32 %s2_30fixp113, %529, !taffo.info !28
  %s34_30fixp147 = sext i32 %s2_30fixp145 to i64, !taffo.info !456
  %530 = sitofp i64 %s34_30fixp147 to double, !taffo.info !456
  %531 = fdiv double %530, 0x41D0000000000000, !taffo.info !456
  %.flt150 = call i32 (i8*, ...) @printf(i8* getelementptr inbounds ([10 x i8], [10 x i8]* @.str.63, i64 0, i64 0), double %531), !taffo.initweight !110, !taffo.info !458, !taffo.constinfo !95
  %532 = sext i32 %s5_27fixp60 to i64, !taffo.info !16
  %533 = shl i64 %532, 30, !taffo.info !16
  %534 = sext i32 %s2_30fixp145 to i64, !taffo.info !28
  %535 = sdiv i64 %533, %534, !taffo.info !459
  %s34_30fixp = shl i64 %535, 3, !taffo.info !458
  %536 = sitofp i64 %s34_30fixp to double, !taffo.info !458
  %537 = fdiv double %536, 0x41D0000000000000, !taffo.info !458
  %.flt152 = call i32 (i8*, ...) @printf(i8* getelementptr inbounds ([10 x i8], [10 x i8]* @.str.64, i64 0, i64 0), double %537), !taffo.initweight !110, !taffo.info !458, !taffo.constinfo !95
  %538 = shl i64 %s38_26fixp125, 4, !taffo.info !372
  %s34_30fixp149 = add i64 %s34_30fixp, %538, !taffo.info !458
  %u37_27fixp151 = ashr i64 %s34_30fixp149, 3, !taffo.info !460
  %539 = uitofp i64 %u37_27fixp151 to double, !taffo.info !460
  %540 = fdiv double %539, 0x41A0000000000000, !taffo.info !460
  %.flt154 = call i32 (i8*, ...) @printf(i8* getelementptr inbounds ([10 x i8], [10 x i8]* @.str.66, i64 0, i64 0), double %540), !taffo.initweight !110, !taffo.info !463, !taffo.constinfo !95
  %541 = ashr i64 %s34_30fixp149, 3, !taffo.info !458
  %u37_27fixp = call i64 @_ZSt4sqrtf.2_u37_27fixp(i64 %541), !taffo.info !460, !taffo.constinfo !90
  %u37_27fixp153 = call i64 @_ZSt4sqrtf.2_u37_27fixp(i64 %u37_27fixp), !taffo.info !460, !taffo.constinfo !90
  %u37_27fixp155 = sub i64 %u37_27fixp153, 36661572403, !taffo.info !463, !taffo.constinfo !366
  %542 = uitofp i64 %u37_27fixp155 to double, !taffo.info !463
  %543 = fdiv double %542, 0x41A0000000000000, !taffo.info !463, !taffo.constinfo !366
  %.flt162 = call i32 (i8*, ...) @printf(i8* getelementptr inbounds ([10 x i8], [10 x i8]* @.str.67, i64 0, i64 0), double %543), !taffo.initweight !110, !taffo.info !463, !taffo.constinfo !95
  %.flt135 = call i32 (i8*, ...) @printf(i8* getelementptr inbounds ([13 x i8], [13 x i8]* @.str.68, i64 0, i64 0), double %59), !taffo.initweight !110, !taffo.info !372, !taffo.constinfo !95
  %544 = lshr i64 %u37_27fixp155, 27, !taffo.info !460, !taffo.constinfo !366
  %545 = trunc i64 %544 to i32, !taffo.info !463
  %546 = load i16, i16* getelementptr inbounds ([4 x i16], [4 x i16]* @params_ct, i64 0, i64 1), align 2, !taffo.initweight !108, !taffo.info !1
  %547 = sext i16 %546 to i32, !taffo.initweight !110, !taffo.info !1
  %.flt161 = icmp slt i32 %545, %547, !taffo.initweight !110, !taffo.info !463
  br i1 %.flt161, label %548, label %549, !taffo.initweight !165, !taffo.info !343

548:                                              ; preds = %413
  br label %564

549:                                              ; preds = %413
  %550 = lshr i64 %u37_27fixp155, 27, !taffo.info !460, !taffo.constinfo !366
  %551 = trunc i64 %550 to i32, !taffo.info !463
  %552 = load i16, i16* getelementptr inbounds ([4 x i16], [4 x i16]* @params_ct, i64 0, i64 2), align 2, !taffo.initweight !108, !taffo.info !1
  %553 = sext i16 %552 to i32, !taffo.initweight !110, !taffo.info !1
  %.flt160 = icmp slt i32 %551, %553, !taffo.initweight !110, !taffo.info !463
  br i1 %.flt160, label %554, label %555, !taffo.initweight !165, !taffo.info !343

554:                                              ; preds = %549
  br label %563

555:                                              ; preds = %549
  %556 = lshr i64 %u37_27fixp155, 27, !taffo.info !460, !taffo.constinfo !366
  %557 = trunc i64 %556 to i32, !taffo.info !463
  %558 = load i16, i16* getelementptr inbounds ([4 x i16], [4 x i16]* @params_ct, i64 0, i64 3), align 2, !taffo.initweight !108, !taffo.info !1
  %559 = sext i16 %558 to i32, !taffo.initweight !110, !taffo.info !1
  %.flt159 = icmp slt i32 %557, %559, !taffo.initweight !110, !taffo.info !463
  br i1 %.flt159, label %560, label %561, !taffo.initweight !165, !taffo.info !343

560:                                              ; preds = %555
  br label %562

561:                                              ; preds = %555
  br label %562

562:                                              ; preds = %561, %560
  %.02 = phi i8 [ 2, %560 ], [ 3, %561 ]
  br label %563

563:                                              ; preds = %562, %554
  %.1 = phi i8 [ 1, %554 ], [ %.02, %562 ]
  br label %564

564:                                              ; preds = %563, %548
  %.2 = phi i8 [ 0, %548 ], [ %.1, %563 ]
  %565 = sext i8 %.2 to i32
  %566 = call i32 (i8*, ...) @printf(i8* getelementptr inbounds ([11 x i8], [11 x i8]* @.str.69, i64 0, i64 0), i32 %565), !taffo.constinfo !95
  %567 = sext i8 %.2 to i64
  %568 = getelementptr inbounds [4 x i16], [4 x i16]* @params_ct, i64 0, i64 %567, !taffo.initweight !107, !taffo.info !1
  %569 = load i16, i16* %568, align 2, !taffo.initweight !108, !taffo.info !1
  %570 = sext i16 %569 to i32, !taffo.initweight !110, !taffo.info !1
  %s17_15fixp21 = shl i32 %570, 15, !taffo.info !392
  %571 = sext i32 %s17_15fixp21 to i64, !taffo.info !392
  %572 = shl i64 %571, 12, !taffo.info !392
  %u37_27fixp156 = sub i64 %u37_27fixp155, %572, !taffo.info !463
  %573 = lshr i64 %u37_27fixp156, 7, !taffo.info !463
  %s12_20fixp158 = trunc i64 %573 to i32, !taffo.info !464
  %574 = sitofp i32 %s12_20fixp158 to double, !taffo.info !464
  %575 = fdiv double %574, 0x4130000000000000, !taffo.info !464
  %.flt165 = call i32 (i8*, ...) @printf(i8* getelementptr inbounds ([10 x i8], [10 x i8]* @.str.71, i64 0, i64 0), double %575), !taffo.initweight !110, !taffo.info !437, !taffo.constinfo !95
  %576 = sext i8 %.2 to i64
  %s12_20fixp = getelementptr inbounds [4 x i32], [4 x i32]* @params_ksTo.fixp, i64 0, i64 %576, !taffo.info !380
  %s12_20fixp46 = load i32, i32* %s12_20fixp, align 4, !taffo.info !180
  %577 = sext i32 %s12_20fixp46 to i96, !taffo.info !180
  %578 = zext i64 %u37_27fixp156 to i96, !taffo.info !463
  %579 = mul i96 %577, %578, !taffo.info !466
  %580 = ashr i96 %579, 27, !taffo.info !466
  %s12_20fixp157 = trunc i96 %580 to i32, !taffo.info !464
  %s2_30fixp164 = shl i32 %s12_20fixp157, 10, !taffo.info !28
  %581 = sitofp i32 %s2_30fixp164 to double, !taffo.info !28
  %582 = fdiv double %581, 0x41D0000000000000, !taffo.info !28
  %.flt167 = call i32 (i8*, ...) @printf(i8* getelementptr inbounds ([10 x i8], [10 x i8]* @.str.72, i64 0, i64 0), double %582), !taffo.initweight !110, !taffo.info !439, !taffo.constinfo !95
  %583 = shl i32 %s12_20fixp157, 10, !taffo.info !464
  %s2_30fixp163 = add i32 1073741824, %583, !taffo.info !439, !taffo.constinfo !300
  %584 = sitofp i32 %s2_30fixp163 to double, !taffo.info !439
  %585 = fdiv double %584, 0x41D0000000000000, !taffo.info !439, !taffo.constinfo !300
  %.flt168 = call i32 (i8*, ...) @printf(i8* getelementptr inbounds ([11 x i8], [11 x i8]* @.str.73, i64 0, i64 0), double %585), !taffo.initweight !110, !taffo.info !439, !taffo.constinfo !95
  %586 = sext i8 %.2 to i64
  %587 = getelementptr inbounds [4 x float], [4 x float]* %10, i64 0, i64 %586, !taffo.initweight !107, !taffo.info !343
  %588 = load float, float* %587, align 4, !taffo.initweight !108, !taffo.info !343
  %589 = fmul float 0x41D0000000000000, %588, !taffo.info !343
  %590 = fptosi float %589 to i32, !taffo.info !343
  %591 = sext i32 %s2_30fixp98 to i64, !taffo.info !439
  %592 = sext i32 %590 to i64, !taffo.info !343
  %593 = mul i64 %591, %592, !taffo.info !444
  %594 = ashr i64 %593, 30, !taffo.info !444
  %s2_30fixp106 = trunc i64 %594 to i32, !taffo.info !28
  %595 = sitofp i32 %s2_30fixp106 to double, !taffo.info !28
  %596 = fdiv double %595, 0x41D0000000000000, !taffo.info !28
  %.flt124 = call i32 (i8*, ...) @printf(i8* getelementptr inbounds ([11 x i8], [11 x i8]* @.str.74, i64 0, i64 0), double %596), !taffo.initweight !110, !taffo.info !439, !taffo.constinfo !95
  %597 = sext i32 %s2_30fixp106 to i64, !taffo.info !28
  %598 = sext i32 %s2_30fixp163 to i64, !taffo.info !28
  %599 = mul i64 %597, %598, !taffo.info !440
  %600 = ashr i64 %599, 30, !taffo.info !440
  %s2_30fixp166 = trunc i64 %600 to i32, !taffo.info !439
  %601 = sitofp i32 %s2_30fixp166 to float, !taffo.info !439
  %602 = fdiv float %601, 0x41D0000000000000, !taffo.info !439
  %603 = sitofp i32 %s2_30fixp166 to float, !taffo.info !439
  %604 = fdiv float %603, 0x41D0000000000000, !taffo.info !439
  %605 = fpext float %602 to double
  %606 = call i32 (i8*, ...) @printf(i8* getelementptr inbounds ([11 x i8], [11 x i8]* @.str.75, i64 0, i64 0), double %605), !taffo.constinfo !95
  %607 = fdiv float %429, %604
  %608 = fmul float 6.553600e+04, %607, !taffo.info !468
  %s16_16fixp170 = fptosi float %608 to i32, !taffo.info !468
  %609 = sitofp i32 %s16_16fixp170 to double, !taffo.info !468
  %610 = fdiv double %609, 6.553600e+04, !taffo.info !468
  %.flt172 = call i32 (i8*, ...) @printf(i8* getelementptr inbounds ([11 x i8], [11 x i8]* @.str.77, i64 0, i64 0), double %610), !taffo.initweight !110, !taffo.info !469, !taffo.constinfo !95
  %611 = fmul float 0x4190000000000000, %607, !taffo.info !372
  %612 = fptosi float %611 to i64, !taffo.info !372
  %s38_26fixp169 = add i64 %612, %s38_26fixp125, !taffo.info !372
  %613 = sitofp i64 %s38_26fixp169 to double, !taffo.info !372
  %614 = fdiv double %613, 0x4190000000000000, !taffo.info !372
  %615 = sitofp i64 %s38_26fixp169 to float, !taffo.info !372
  %616 = fdiv float %615, 0x4190000000000000, !taffo.info !372
  %.flt174 = call i32 (i8*, ...) @printf(i8* getelementptr inbounds ([11 x i8], [11 x i8]* @.str.78, i64 0, i64 0), double %614), !taffo.initweight !110, !taffo.info !372, !taffo.constinfo !95
  %s38_26fixp171 = call i64 @_ZSt4sqrtf.3_s38_26fixp(float %616), !taffo.info !372, !taffo.constinfo !90
  %617 = sitofp i64 %s38_26fixp171 to float, !taffo.info !372
  %618 = fdiv float %617, 0x4190000000000000, !taffo.info !372, !taffo.constinfo !90
  %s38_26fixp173 = call i64 @_ZSt4sqrtf.3_s38_26fixp(float %618), !taffo.info !372, !taffo.constinfo !90
  %s38_26fixp175 = sub i64 %s38_26fixp173, 18330786201, !taffo.info !372, !taffo.constinfo !366
  %619 = sitofp i64 %s38_26fixp175 to double, !taffo.info !372
  %620 = fdiv double %619, 0x4190000000000000, !taffo.info !372, !taffo.constinfo !366
  %621 = sitofp i64 %s38_26fixp175 to float, !taffo.info !372
  %622 = fdiv float %621, 0x4190000000000000, !taffo.info !372, !taffo.constinfo !366
  %.flt176 = call i32 (i8*, ...) @printf(i8* getelementptr inbounds ([11 x i8], [11 x i8]* @.str.79, i64 0, i64 0), double %620), !taffo.initweight !110, !taffo.info !372, !taffo.constinfo !95
  %623 = sext i32 %.0 to i64
  %.flt.s11_21fixp = getelementptr inbounds float, float* %3, i64 %623, !taffo.initweight !108, !taffo.info !470
  store float %622, float* %.flt.s11_21fixp, align 4, !taffo.info !343
  %624 = call i32 (i8*, ...) @printf(i8* getelementptr inbounds ([18 x i8], [18 x i8]* @.str.80, i64 0, i64 0), i32 %.0), !taffo.constinfo !95
  br label %625

625:                                              ; preds = %564, %295
  br label %626

626:                                              ; preds = %625
  %627 = add nsw i32 %.0, 1, !taffo.constinfo !90
  br label %262, !llvm.loop !472

628:                                              ; preds = %262
  %629 = fmul float 6.553600e+04, %13, !taffo.info !363, !taffo.constinfo !90
  %s16_16fixp2 = fptosi float %629 to i32, !taffo.info !363
  %630 = sitofp i32 %s16_16fixp2 to double, !taffo.info !363
  %631 = fdiv double %630, 6.553600e+04, !taffo.info !363
  %.flt34 = call i32 (i8*, ...) @printf(i8* getelementptr inbounds ([8 x i8], [8 x i8]* @.str.81, i64 0, i64 0), double %631), !taffo.initweight !110, !taffo.info !365, !taffo.constinfo !95
  %632 = fmul float 6.553600e+04, %14, !taffo.info !363, !taffo.constinfo !90
  %s16_16fixp3 = fptosi float %632 to i32, !taffo.info !363
  %633 = sitofp i32 %s16_16fixp3 to double, !taffo.info !363
  %634 = fdiv double %633, 6.553600e+04, !taffo.info !363
  %.flt35 = call i32 (i8*, ...) @printf(i8* getelementptr inbounds ([8 x i8], [8 x i8]* @.str.82, i64 0, i64 0), double %634), !taffo.initweight !110, !taffo.info !365, !taffo.constinfo !95
  %635 = fpext float %2 to double, !taffo.initweight !108, !taffo.info !343
  %636 = call i32 (i8*, ...) @printf(i8* getelementptr inbounds ([10 x i8], [10 x i8]* @.str.83, i64 0, i64 0), double %635), !taffo.initweight !110, !taffo.info !343, !taffo.constinfo !95
  %.flt134 = call i32 (i8*, ...) @printf(i8* getelementptr inbounds ([12 x i8], [12 x i8]* @.str.29, i64 0, i64 0), double %61), !taffo.initweight !110, !taffo.info !372, !taffo.constinfo !95
  ret void
}

; Function Attrs: noinline uwtable mustprogress
define dso_local float @_Z15MLX90640_GetVddPKt(i16* %0) #0 !taffo.initweight !98 !taffo.funinfo !473 {
  %2 = getelementptr inbounds i16, i16* %0, i64 810, !taffo.info !76
  %3 = load i16, i16* %2, align 2, !taffo.info !76
  %4 = zext i16 %3 to i32, !taffo.info !76
  %s16_16fixp1 = shl i32 %4, 16, !taffo.info !474
  %5 = sitofp i32 %s16_16fixp1 to float, !taffo.info !474
  %6 = fdiv float %5, 6.553600e+04, !taffo.info !474
  %7 = icmp sgt i32 %s16_16fixp1, 2147418112, !taffo.info !365
  br i1 %7, label %8, label %11, !taffo.initweight !110, !taffo.info !475

8:                                                ; preds = %1
  %s16_16fixp3 = sub i32 %s16_16fixp1, 0, !taffo.info !468, !taffo.constinfo !399
  %9 = sitofp i32 %s16_16fixp3 to float, !taffo.info !468
  %10 = fdiv float %9, 6.553600e+04, !taffo.info !468, !taffo.constinfo !399
  br label %11

11:                                               ; preds = %1, %8
  %.0 = phi float [ %10, %8 ], [ %6, %1 ], !taffo.info !476
  %12 = fmul float 6.553600e+04, %.0, !taffo.info !476
  %s16_16fixp = fptosi float %12 to i32, !taffo.info !468
  %13 = sitofp i32 %s16_16fixp to double, !taffo.info !468
  %14 = fdiv double %13, 6.553600e+04, !taffo.info !468
  %.flt = call i32 (i8*, ...) @printf(i8* getelementptr inbounds ([9 x i8], [9 x i8]* @.str.86, i64 0, i64 0), double %14), !taffo.initweight !110, !taffo.info !469, !taffo.constinfo !95
  %15 = getelementptr inbounds i16, i16* %0, i64 832, !taffo.info !76
  %16 = load i16, i16* %15, align 2, !taffo.info !76
  %17 = zext i16 %16 to i32, !taffo.info !76
  %18 = and i32 %17, 3072, !taffo.constinfo !90
  %19 = ashr i32 %18, 10, !taffo.constinfo !90
  %20 = load i32, i32* @params_resolutionEE, align 4, !taffo.initweight !107, !taffo.info !24
  %u9_23fixp = shl i32 %20, 23, !taffo.info !477
  %21 = uitofp i32 %u9_23fixp to double, !taffo.info !477
  %22 = fdiv double %21, 0x4160000000000000, !taffo.info !477
  %matchop = call double @_ZSt3powIidEN9__gnu_cxx11__promote_2IT_T0_NS0_9__promoteIS2_Xsr3std12__is_integerIS2_EE7__valueEE6__typeENS4_IS3_Xsr3std12__is_integerIS3_EE7__valueEE6__typeEE6__typeES2_S3_.7_u0_0fixp(i32 2, double %22), !taffo.info !24, !taffo.constinfo !95
  %23 = sitofp i32 %19 to double
  %24 = call double @_ZSt3powIidEN9__gnu_cxx11__promote_2IT_T0_NS0_9__promoteIS2_Xsr3std12__is_integerIS2_EE7__valueEE6__typeENS4_IS3_Xsr3std12__is_integerIS3_EE7__valueEE6__typeEE6__typeES2_S3_(i32 2, double %23), !taffo.constinfo !95
  %25 = fdiv double %matchop, %24, !taffo.initweight !165, !taffo.info !24
  %26 = fptrunc double %25 to float, !taffo.initweight !166, !taffo.info !24
  %27 = call i32 (i8*, ...) @printf(i8* getelementptr inbounds ([19 x i8], [19 x i8]* @.str.87, i64 0, i64 0), i32 %19), !taffo.constinfo !95
  %28 = load i32, i32* @params_resolutionEE, align 4, !taffo.initweight !107, !taffo.info !24
  %29 = call i32 (i8*, ...) @printf(i8* getelementptr inbounds ([18 x i8], [18 x i8]* @.str.88, i64 0, i64 0), i32 %28), !taffo.initweight !108, !taffo.info !24, !taffo.constinfo !95
  %30 = fmul float 0x4160000000000000, %26, !taffo.info !24
  %31 = fptoui float %30 to i32, !taffo.info !24
  %u13_19fixp = lshr i32 %31, 4, !taffo.info !478
  %32 = uitofp i32 %u13_19fixp to double, !taffo.info !478
  %33 = fdiv double %32, 5.242880e+05, !taffo.info !478
  %.flt6 = call i32 (i8*, ...) @printf(i8* getelementptr inbounds ([29 x i8], [29 x i8]* @.str.89, i64 0, i64 0), double %33), !taffo.initweight !110, !taffo.info !481, !taffo.constinfo !95
  %34 = load i16, i16* @params_kVdd, align 2, !taffo.initweight !107, !taffo.info !1
  %35 = sext i16 %34 to i32, !taffo.initweight !108, !taffo.info !1
  %36 = load i16, i16* @params_vdd25, align 2, !taffo.initweight !107, !taffo.info !1
  %37 = sext i16 %36 to i32, !taffo.initweight !108, !taffo.info !1
  %38 = call i32 (i8*, ...) @printf(i8* getelementptr inbounds ([21 x i8], [21 x i8]* @.str.90, i64 0, i64 0), i32 %35, i32 %37), !taffo.initweight !110, !taffo.info !1, !taffo.constinfo !93
  %39 = fmul float 0x4160000000000000, %26, !taffo.info !24
  %40 = fptoui float %39 to i32, !taffo.info !24
  %41 = fmul float 6.553600e+04, %.0, !taffo.info !476
  %42 = fptosi float %41 to i32, !taffo.info !476
  %43 = zext i32 %40 to i64, !taffo.info !24
  %44 = sext i32 %42 to i64, !taffo.info !476
  %45 = mul i64 %43, %44, !taffo.info !482
  %46 = ashr i64 %45, 24, !taffo.info !482
  %s17_15fixp4 = trunc i64 %46 to i32, !taffo.info !483
  %47 = load i16, i16* @params_vdd25, align 2, !taffo.initweight !107, !taffo.info !1
  %48 = sext i16 %47 to i32, !taffo.initweight !108, !taffo.info !1
  %s17_15fixp2 = shl i32 %48, 15, !taffo.info !392
  %s17_15fixp5 = sub i32 %s17_15fixp4, %s17_15fixp2, !taffo.info !484
  %49 = load i16, i16* @params_kVdd, align 2, !taffo.initweight !107, !taffo.info !1
  %50 = sext i16 %49 to i32, !taffo.initweight !108, !taffo.info !1
  %s17_15fixp = shl i32 %50, 15, !taffo.info !392
  %51 = sext i32 %s17_15fixp5 to i64, !taffo.info !484
  %52 = shl i64 %51, 15, !taffo.info !484
  %53 = sext i32 %s17_15fixp to i64, !taffo.info !392
  %54 = sdiv i64 %52, %53, !taffo.info !486
  %s44_20fixp = shl i64 %54, 5, !taffo.info !488
  %s44_20fixp7 = add i64 %s44_20fixp, 3460300, !taffo.info !489, !taffo.constinfo !416
  %55 = sitofp i64 %s44_20fixp7 to float, !taffo.info !489
  %56 = fdiv float %55, 0x4130000000000000, !taffo.info !489, !taffo.constinfo !416
  %57 = ashr i64 %s44_20fixp7, 4, !taffo.info !489, !taffo.constinfo !416
  %s16_16fixp8 = trunc i64 %57 to i32, !taffo.info !468
  %58 = sitofp i32 %s16_16fixp8 to double, !taffo.info !468
  %59 = fdiv double %58, 6.553600e+04, !taffo.info !468
  %.flt9 = call i32 (i8*, ...) @printf(i8* getelementptr inbounds ([9 x i8], [9 x i8]* @.str.86, i64 0, i64 0), double %59), !taffo.initweight !110, !taffo.info !469, !taffo.constinfo !95
  ret float %56, !taffo.initweight !108, !taffo.info !475
}

; Function Attrs: noinline uwtable mustprogress
define dso_local float @_Z14MLX90640_GetTaPKt(i16* %0) #0 !taffo.initweight !98 !taffo.funinfo !473 {
  %2 = call i32 (i8*, ...) @printf(i8* getelementptr inbounds ([11 x i8], [11 x i8]* @.str.94, i64 0, i64 0)), !taffo.constinfo !90
  %3 = call float @_Z15MLX90640_GetVddPKt(i16* %0), !taffo.info !491, !taffo.constinfo !90
  %4 = fmul float 0x4130000000000000, %3, !taffo.info !491, !taffo.constinfo !90
  %s44_20fixp3 = fptosi float %4 to i64, !taffo.info !489
  %5 = sitofp i64 %s44_20fixp3 to double, !taffo.info !489
  %6 = fdiv double %5, 0x4130000000000000, !taffo.info !489
  %.flt10 = call i32 (i8*, ...) @printf(i8* getelementptr inbounds ([10 x i8], [10 x i8]* @.str.95, i64 0, i64 0), double %6), !taffo.initweight !110, !taffo.info !492, !taffo.constinfo !95
  %7 = getelementptr inbounds i16, i16* %0, i64 800, !taffo.info !76
  %8 = load i16, i16* %7, align 2, !taffo.info !76
  %9 = zext i16 %8 to i32, !taffo.info !76
  %s17_15fixp5 = shl i32 %9, 15, !taffo.info !493
  %10 = sitofp i32 %s17_15fixp5 to float, !taffo.info !493
  %11 = fdiv float %10, 3.276800e+04, !taffo.info !493
  %12 = icmp sgt i32 %s17_15fixp5, 1073709056, !taffo.info !365
  br i1 %12, label %13, label %16, !taffo.initweight !110, !taffo.info !494

13:                                               ; preds = %1
  %s17_15fixp12 = sub i32 %s17_15fixp5, -2147483648, !taffo.info !496, !taffo.constinfo !399
  %14 = sitofp i32 %s17_15fixp12 to float, !taffo.info !496
  %15 = fdiv float %14, 3.276800e+04, !taffo.info !496, !taffo.constinfo !399
  br label %16

16:                                               ; preds = %1, %13
  %.01 = phi float [ %15, %13 ], [ %11, %1 ], !taffo.info !497
  %17 = getelementptr inbounds i16, i16* %0, i64 768, !taffo.info !76
  %18 = load i16, i16* %17, align 2, !taffo.info !76
  %19 = zext i16 %18 to i32, !taffo.info !76
  %s18_14fixp = shl i32 %19, 14, !taffo.info !498
  %20 = sitofp i32 %s18_14fixp to float, !taffo.info !498
  %21 = fdiv float %20, 1.638400e+04, !taffo.info !498
  %22 = icmp sgt i32 %s18_14fixp, 536854528, !taffo.info !365
  br i1 %22, label %23, label %26, !taffo.initweight !110, !taffo.info !500

23:                                               ; preds = %16
  %s18_14fixp8 = sub i32 %s18_14fixp, 1073741824, !taffo.info !501, !taffo.constinfo !399
  %24 = sitofp i32 %s18_14fixp8 to float, !taffo.info !501
  %25 = fdiv float %24, 1.638400e+04, !taffo.info !501, !taffo.constinfo !399
  br label %26

26:                                               ; preds = %16, %23
  %.0 = phi float [ %25, %23 ], [ %21, %16 ], !taffo.info !503
  %u4_28fixp7 = load i32, i32* @params_alphaPTAT.fixp, align 4, !taffo.info !13
  %27 = fmul float 3.276800e+04, %.01, !taffo.info !497
  %28 = fptosi float %27 to i32, !taffo.info !497
  %29 = sext i32 %28 to i64, !taffo.info !497
  %30 = zext i32 %u4_28fixp7 to i64, !taffo.info !13
  %31 = mul i64 %29, %30, !taffo.info !505
  %32 = ashr i64 %31, 32, !taffo.info !505
  %s21_11fixp = trunc i64 %32 to i32, !taffo.info !507
  %33 = sitofp i32 %s21_11fixp to double, !taffo.info !507
  %34 = fdiv double %33, 2.048000e+03, !taffo.info !507
  %.flt17 = call i32 (i8*, ...) @printf(i8* getelementptr inbounds ([17 x i8], [17 x i8]* @.str.96, i64 0, i64 0), double %34), !taffo.initweight !110, !taffo.info !509, !taffo.constinfo !95
  %35 = fmul float 1.638400e+04, %.0, !taffo.info !503
  %36 = fptosi float %35 to i32, !taffo.info !503
  %37 = ashr i32 %36, 3, !taffo.info !503
  %s21_11fixp15 = add i32 %s21_11fixp, %37, !taffo.info !510
  %38 = sitofp i32 %s21_11fixp15 to double, !taffo.info !510
  %39 = fdiv double %38, 2.048000e+03, !taffo.info !510
  %.flt20 = call i32 (i8*, ...) @printf(i8* getelementptr inbounds ([17 x i8], [17 x i8]* @.str.97, i64 0, i64 0), double %39), !taffo.initweight !110, !taffo.info !509, !taffo.constinfo !95
  %40 = fmul float 3.276800e+04, %.01, !taffo.info !497
  %41 = fptosi float %40 to i32, !taffo.info !497
  %42 = sext i32 %41 to i64, !taffo.info !497
  %43 = shl i64 %42, 11, !taffo.info !497
  %44 = sext i32 %s21_11fixp15 to i64, !taffo.info !510
  %45 = sdiv i64 %43, %44, !taffo.info !512
  %s17_15fixp16 = trunc i64 %45 to i32, !taffo.info !513
  %46 = sitofp i32 %s17_15fixp16 to double, !taffo.info !513
  %47 = fdiv double %46, 3.276800e+04, !taffo.info !513
  %.flt22 = call i32 (i8*, ...) @printf(i8* getelementptr inbounds ([17 x i8], [17 x i8]* @.str.98, i64 0, i64 0), double %47), !taffo.initweight !110, !taffo.info !402, !taffo.constinfo !95
  %48 = sext i32 %s17_15fixp16 to i96, !taffo.info !496
  %49 = mul i96 %48, 262144, !taffo.info !514, !taffo.constinfo !517
  %50 = shl i96 %49, 14, !taffo.info !514, !taffo.constinfo !517
  %s35_29fixp = trunc i96 %50 to i64, !taffo.info !521
  %51 = sitofp i64 %s35_29fixp to double, !taffo.info !521
  %52 = fdiv double %51, 0x41C0000000000000, !taffo.info !521
  %53 = fmul float 3.276800e+04, %.01, !taffo.info !497
  %s17_15fixp4 = fptosi float %53 to i32, !taffo.info !496
  %54 = sitofp i32 %s17_15fixp4 to double, !taffo.info !496
  %55 = fdiv double %54, 3.276800e+04, !taffo.info !496
  %.flt11 = call i32 (i8*, ...) @printf(i8* getelementptr inbounds ([13 x i8], [13 x i8]* @.str.99, i64 0, i64 0), double %55), !taffo.initweight !110, !taffo.info !522, !taffo.constinfo !95
  %u4_28fixp = load i32, i32* @params_alphaPTAT.fixp, align 4, !taffo.info !13
  %56 = uitofp i32 %u4_28fixp to double, !taffo.info !13
  %57 = fdiv double %56, 0x41B0000000000000, !taffo.info !13
  %.flt14 = call i32 (i8*, ...) @printf(i8* getelementptr inbounds ([18 x i8], [18 x i8]* @.str.100, i64 0, i64 0), double %57), !taffo.initweight !110, !taffo.info !523, !taffo.constinfo !95
  %.flt25 = call i32 (i8*, ...) @printf(i8* getelementptr inbounds ([16 x i8], [16 x i8]* @.str.101, i64 0, i64 0), double %52), !taffo.initweight !110, !taffo.info !524, !taffo.constinfo !95
  %58 = fmul float 0x4130000000000000, %3, !taffo.info !491, !taffo.constinfo !90
  %s44_20fixp2 = fptosi float %58 to i64, !taffo.info !489
  %s44_20fixp9 = sub i64 %s44_20fixp2, 3460300, !taffo.info !525, !taffo.constinfo !416
  %59 = sitofp i64 %s44_20fixp9 to double, !taffo.info !525
  %60 = fdiv double %59, 0x4130000000000000, !taffo.info !525, !taffo.constinfo !416
  %.flt19 = call i32 (i8*, ...) @printf(i8* getelementptr inbounds ([12 x i8], [12 x i8]* @.str.102, i64 0, i64 0), double %60), !taffo.initweight !110, !taffo.info !492, !taffo.constinfo !95
  %s2_30fixp6 = load i32, i32* @params_KvPTAT.fixp, align 4, !taffo.info !7
  %61 = sext i32 %s2_30fixp6 to i96, !taffo.info !7
  %62 = sext i64 %s44_20fixp9 to i96, !taffo.info !525
  %63 = mul i96 %61, %62, !taffo.info !527
  %64 = ashr i96 %63, 24, !taffo.info !527
  %s38_26fixp = trunc i96 %64 to i64, !taffo.info !530
  %65 = sitofp i64 %s38_26fixp to double, !taffo.info !530
  %66 = fdiv double %65, 0x4190000000000000, !taffo.info !530
  %s2_30fixp = load i32, i32* @params_KvPTAT.fixp, align 4, !taffo.info !7
  %67 = sitofp i32 %s2_30fixp to double, !taffo.info !7
  %68 = fdiv double %67, 0x41D0000000000000, !taffo.info !7
  %.flt13 = call i32 (i8*, ...) @printf(i8* getelementptr inbounds ([15 x i8], [15 x i8]* @.str.103, i64 0, i64 0), double %68), !taffo.initweight !110, !taffo.info !439, !taffo.constinfo !95
  %69 = fmul float 0x4130000000000000, %3, !taffo.info !491, !taffo.constinfo !90
  %s44_20fixp = fptosi float %69 to i64, !taffo.info !489
  %70 = sitofp i64 %s44_20fixp to double, !taffo.info !489
  %71 = fdiv double %70, 0x4130000000000000, !taffo.info !489
  %.flt = call i32 (i8*, ...) @printf(i8* getelementptr inbounds ([12 x i8], [12 x i8]* @.str.104, i64 0, i64 0), double %71), !taffo.initweight !110, !taffo.info !492, !taffo.constinfo !95
  %.flt21 = call i32 (i8*, ...) @printf(i8* getelementptr inbounds ([12 x i8], [12 x i8]* @.str.105, i64 0, i64 0), double %66), !taffo.initweight !110, !taffo.info !531, !taffo.constinfo !95
  %s38_26fixp18 = add i64 67108864, %s38_26fixp, !taffo.info !532, !taffo.constinfo !300
  %72 = sitofp i64 %s38_26fixp18 to double, !taffo.info !532
  %73 = fdiv double %72, 0x4190000000000000, !taffo.info !532, !taffo.constinfo !300
  %.flt23 = call i32 (i8*, ...) @printf(i8* getelementptr inbounds ([12 x i8], [12 x i8]* @.str.106, i64 0, i64 0), double %73), !taffo.initweight !110, !taffo.info !531, !taffo.constinfo !95
  %74 = sext i64 %s35_29fixp to i128, !taffo.info !521
  %75 = shl i128 %74, 26, !taffo.info !521
  %76 = sext i64 %s38_26fixp18 to i128, !taffo.info !532
  %77 = sdiv i128 %75, %76, !taffo.info !534
  %78 = ashr i128 %77, 29, !taffo.info !534
  %s64_0fixp = trunc i128 %78 to i64, !taffo.info !537
  %79 = sitofp i64 %s64_0fixp to double, !taffo.info !537
  %.flt27 = call i32 (i8*, ...) @printf(i8* getelementptr inbounds ([12 x i8], [12 x i8]* @.str.107, i64 0, i64 0), double %79), !taffo.initweight !110, !taffo.info !539, !taffo.constinfo !95
  %80 = load i16, i16* @params_vPTAT25, align 2, !taffo.initweight !107, !taffo.info !1
  %81 = zext i16 %80 to i32, !taffo.initweight !108, !taffo.info !1
  %s17_15fixp = shl i32 %81, 15, !taffo.info !392
  %82 = sext i32 %s17_15fixp to i64, !taffo.info !392
  %83 = ashr i64 %82, 15, !taffo.info !392
  %s64_0fixp24 = sub i64 %s64_0fixp, %83, !taffo.info !540
  %84 = sitofp i64 %s64_0fixp24 to double, !taffo.info !540
  %.flt29 = call i32 (i8*, ...) @printf(i8* getelementptr inbounds ([15 x i8], [15 x i8]* @.str.108, i64 0, i64 0), double %84), !taffo.initweight !110, !taffo.info !539, !taffo.constinfo !95
  %s9_23fixp = load i32, i32* @params_KtPTAT.fixp, align 4, !taffo.info !10
  %85 = sext i64 %s64_0fixp24 to i96, !taffo.info !540
  %86 = shl i96 %85, 23, !taffo.info !540
  %87 = sext i32 %s9_23fixp to i96, !taffo.info !10
  %88 = sdiv i96 %86, %87, !taffo.info !542
  %s64_0fixp26 = trunc i96 %88 to i64, !taffo.info !545
  %s64_0fixp28 = add i64 %s64_0fixp26, 25, !taffo.info !546, !taffo.constinfo !408
  %89 = sitofp i64 %s64_0fixp28 to double, !taffo.info !546
  %90 = sitofp i64 %s64_0fixp28 to float, !taffo.info !545
  %.flt30 = call i32 (i8*, ...) @printf(i8* getelementptr inbounds ([15 x i8], [15 x i8]* @.str.109, i64 0, i64 0), double %89), !taffo.initweight !110, !taffo.info !539, !taffo.constinfo !95
  ret float %90, !taffo.initweight !108, !taffo.info !547
}

; Function Attrs: noinline uwtable mustprogress
define dso_local void @_Z17MLX90640_GetImagePKtPf(i16* %0, float* %1) #0 !taffo.initweight !84 !taffo.funinfo !85 {
  %3 = alloca [2 x float], align 4, !taffo.initweight !0, !taffo.info !343
  %4 = getelementptr inbounds i16, i16* %0, i64 833
  %5 = load i16, i16* %4, align 2
  %6 = call float @_Z15MLX90640_GetVddPKt(i16* %0), !taffo.constinfo !90
  %7 = call float @_Z14MLX90640_GetTaPKt(i16* %0), !taffo.constinfo !90
  %8 = getelementptr inbounds i16, i16* %0, i64 778
  %9 = load i16, i16* %8, align 2
  %10 = uitofp i16 %9 to float
  %11 = fcmp ogt float %10, 3.276700e+04, !taffo.initweight !108, !taffo.info !343
  br i1 %11, label %12, label %14, !taffo.initweight !110, !taffo.info !343

12:                                               ; preds = %2
  %13 = fsub float %10, 6.553600e+04, !taffo.initweight !108, !taffo.info !343, !taffo.constinfo !399
  br label %14

14:                                               ; preds = %2, %12
  %.04 = phi float [ %13, %12 ], [ %10, %2 ]
  %15 = load i16, i16* @params_gainEE, align 2, !taffo.initweight !107, !taffo.info !1
  %16 = sext i16 %15 to i32, !taffo.initweight !108, !taffo.info !1
  %s17_15fixp5 = shl i32 %16, 15, !taffo.info !392
  %17 = fmul float 3.276800e+04, %.04, !taffo.info !402
  %18 = fptosi float %17 to i32, !taffo.info !402
  %19 = sext i32 %s17_15fixp5 to i64, !taffo.info !392
  %20 = shl i64 %19, 15, !taffo.info !392
  %21 = sext i32 %18 to i64, !taffo.info !402
  %22 = sdiv i64 %20, %21, !taffo.info !403
  %s17_15fixp17 = trunc i64 %22 to i32, !taffo.info !402
  %23 = getelementptr inbounds i16, i16* %0, i64 832
  %24 = load i16, i16* %23, align 2
  %25 = zext i16 %24 to i32
  %26 = and i32 %25, 4096, !taffo.constinfo !90
  %27 = ashr i32 %26, 5, !taffo.constinfo !90
  %28 = trunc i32 %27 to i8
  %29 = getelementptr inbounds i16, i16* %0, i64 776
  %30 = load i16, i16* %29, align 2
  %31 = uitofp i16 %30 to float
  %32 = getelementptr inbounds [2 x float], [2 x float]* %3, i64 0, i64 0, !taffo.initweight !107, !taffo.info !343
  store float %31, float* %32, align 4, !taffo.info !343
  %33 = getelementptr inbounds i16, i16* %0, i64 808
  %34 = load i16, i16* %33, align 2
  %35 = uitofp i16 %34 to float
  %36 = getelementptr inbounds [2 x float], [2 x float]* %3, i64 0, i64 1, !taffo.initweight !107, !taffo.info !343
  store float %35, float* %36, align 4, !taffo.info !343
  br label %37

37:                                               ; preds = %65, %14
  %.01 = phi i32 [ 0, %14 ], [ %66, %65 ]
  %38 = icmp slt i32 %.01, 2
  br i1 %38, label %39, label %67

39:                                               ; preds = %37
  %40 = sext i32 %.01 to i64
  %41 = getelementptr inbounds [2 x float], [2 x float]* %3, i64 0, i64 %40, !taffo.initweight !107, !taffo.info !343
  %42 = load float, float* %41, align 4, !taffo.initweight !108, !taffo.info !343
  %43 = fcmp ogt float %42, 3.276700e+04, !taffo.initweight !110, !taffo.info !343
  br i1 %43, label %44, label %51, !taffo.initweight !165, !taffo.info !343

44:                                               ; preds = %39
  %45 = sext i32 %.01 to i64
  %46 = getelementptr inbounds [2 x float], [2 x float]* %3, i64 0, i64 %45, !taffo.initweight !107, !taffo.info !343
  %47 = load float, float* %46, align 4, !taffo.initweight !108, !taffo.info !343
  %48 = fsub float %47, 6.553600e+04, !taffo.initweight !110, !taffo.info !343, !taffo.constinfo !399
  %49 = sext i32 %.01 to i64
  %50 = getelementptr inbounds [2 x float], [2 x float]* %3, i64 0, i64 %49, !taffo.initweight !107, !taffo.info !343
  store float %48, float* %50, align 4, !taffo.info !343
  br label %51

51:                                               ; preds = %39, %44
  %52 = sext i32 %.01 to i64
  %53 = getelementptr inbounds [2 x float], [2 x float]* %3, i64 0, i64 %52, !taffo.initweight !107, !taffo.info !343
  %54 = load float, float* %53, align 4, !taffo.initweight !108, !taffo.info !343
  %55 = fmul float 3.276800e+04, %54, !taffo.info !343
  %56 = fptosi float %55 to i32, !taffo.info !343
  %57 = sext i32 %56 to i64, !taffo.info !343
  %58 = sext i32 %s17_15fixp17 to i64, !taffo.info !402
  %59 = mul i64 %57, %58, !taffo.info !405
  %60 = ashr i64 %59, 15, !taffo.info !405
  %s17_15fixp28 = trunc i64 %60 to i32, !taffo.info !402
  %61 = sitofp i32 %s17_15fixp28 to float, !taffo.info !402
  %62 = fdiv float %61, 3.276800e+04, !taffo.info !402
  %63 = sext i32 %.01 to i64
  %64 = getelementptr inbounds [2 x float], [2 x float]* %3, i64 0, i64 %63, !taffo.initweight !107, !taffo.info !343
  store float %62, float* %64, align 4, !taffo.info !343
  br label %65

65:                                               ; preds = %51
  %66 = add nsw i32 %.01, 1, !taffo.constinfo !90
  br label %37, !llvm.loop !548

67:                                               ; preds = %37
  %68 = getelementptr inbounds [2 x float], [2 x float]* %3, i64 0, i64 0, !taffo.initweight !107, !taffo.info !343
  %69 = load float, float* %68, align 4, !taffo.initweight !108, !taffo.info !343
  %70 = fpext float %69 to double, !taffo.initweight !110, !taffo.info !343
  %71 = load i16, i16* getelementptr inbounds ([2 x i16], [2 x i16]* @params_cpOffset, i64 0, i64 0), align 2, !taffo.initweight !108, !taffo.info !1
  %72 = sext i16 %71 to i32, !taffo.initweight !110, !taffo.info !1
  %s17_15fixp6 = shl i32 %72, 15, !taffo.info !392
  %u8_24fixp12 = load i32, i32* @params_cpKta.fixp, align 4, !taffo.info !21
  %73 = fsub float %7, 2.500000e+01, !taffo.initweight !108, !taffo.info !343, !taffo.constinfo !408
  %74 = fmul float 0x4170000000000000, %73, !taffo.info !343, !taffo.constinfo !408
  %75 = fptoui float %74 to i32, !taffo.info !343
  %76 = zext i32 %u8_24fixp12 to i64, !taffo.info !21
  %77 = zext i32 %75 to i64, !taffo.info !343
  %78 = mul i64 %76, %77, !taffo.info !549
  %79 = lshr i64 %78, 24, !taffo.info !549
  %u8_24fixp22 = trunc i64 %79 to i32, !taffo.info !21
  %u8_24fixp35 = add i32 16777216, %u8_24fixp22, !taffo.info !21, !taffo.constinfo !300
  %80 = sext i32 %s17_15fixp6 to i64, !taffo.info !392
  %81 = zext i32 %u8_24fixp35 to i64, !taffo.info !21
  %82 = mul i64 %80, %81, !taffo.info !413
  %83 = lshr i64 %82, 15, !taffo.info !413
  %u8_24fixp44 = trunc i64 %83 to i32, !taffo.info !21
  %s9_23fixp50 = lshr i32 %u8_24fixp44, 1, !taffo.info !415
  %s9_23fixp10 = load i32, i32* @params_cpKv.fixp, align 4, !taffo.info !19
  %84 = fmul float 1.638400e+04, %6, !taffo.info !551, !taffo.constinfo !90
  %s18_14fixp7 = fptosi float %84 to i32, !taffo.info !551
  %s18_14fixp18 = sub i32 %s18_14fixp7, 54067, !taffo.info !551, !taffo.constinfo !416
  %85 = sext i32 %s9_23fixp10 to i64, !taffo.info !19
  %86 = sext i32 %s18_14fixp18 to i64, !taffo.info !551
  %87 = mul i64 %85, %86, !taffo.info !553
  %88 = ashr i64 %87, 14, !taffo.info !553
  %s9_23fixp32 = trunc i64 %88 to i32, !taffo.info !19
  %s9_23fixp42 = add i32 8388608, %s9_23fixp32, !taffo.info !19, !taffo.constinfo !300
  %89 = sext i32 %s9_23fixp50 to i64, !taffo.info !415
  %90 = sext i32 %s9_23fixp42 to i64, !taffo.info !19
  %91 = mul i64 %89, %90, !taffo.info !421
  %92 = ashr i64 %91, 23, !taffo.info !421
  %s9_23fixp56 = trunc i64 %92 to i32, !taffo.info !19
  %93 = fmul double 0x4160000000000000, %70, !taffo.info !343
  %94 = fptosi double %93 to i32, !taffo.info !343
  %s9_23fixp61 = sub i32 %94, %s9_23fixp56, !taffo.info !423
  %95 = sitofp i32 %s9_23fixp61 to float, !taffo.info !423
  %96 = fdiv float %95, 0x4160000000000000, !taffo.info !423
  %97 = getelementptr inbounds [2 x float], [2 x float]* %3, i64 0, i64 0, !taffo.initweight !107, !taffo.info !343
  store float %96, float* %97, align 4, !taffo.info !343
  %98 = zext i8 %28 to i32
  %99 = load i8, i8* @params_calibrationModeEE, align 1
  %100 = zext i8 %99 to i32
  %101 = icmp eq i32 %98, %100
  br i1 %101, label %102, label %133

102:                                              ; preds = %67
  %103 = getelementptr inbounds [2 x float], [2 x float]* %3, i64 0, i64 1, !taffo.initweight !107, !taffo.info !343
  %104 = load float, float* %103, align 4, !taffo.initweight !108, !taffo.info !343
  %105 = fpext float %104 to double, !taffo.initweight !110, !taffo.info !343
  %106 = load i16, i16* getelementptr inbounds ([2 x i16], [2 x i16]* @params_cpOffset, i64 0, i64 1), align 2, !taffo.initweight !108, !taffo.info !1
  %107 = sext i16 %106 to i32, !taffo.initweight !110, !taffo.info !1
  %s17_15fixp4 = shl i32 %107, 15, !taffo.info !392
  %u8_24fixp11 = load i32, i32* @params_cpKta.fixp, align 4, !taffo.info !21
  %108 = fsub float %7, 2.500000e+01, !taffo.initweight !108, !taffo.info !343, !taffo.constinfo !408
  %109 = fmul float 0x4170000000000000, %108, !taffo.info !343, !taffo.constinfo !408
  %110 = fptoui float %109 to i32, !taffo.info !343
  %111 = zext i32 %u8_24fixp11 to i64, !taffo.info !21
  %112 = zext i32 %110 to i64, !taffo.info !343
  %113 = mul i64 %111, %112, !taffo.info !549
  %114 = lshr i64 %113, 24, !taffo.info !549
  %u8_24fixp21 = trunc i64 %114 to i32, !taffo.info !21
  %u8_24fixp34 = add i32 16777216, %u8_24fixp21, !taffo.info !21, !taffo.constinfo !300
  %115 = sext i32 %s17_15fixp4 to i64, !taffo.info !392
  %116 = zext i32 %u8_24fixp34 to i64, !taffo.info !21
  %117 = mul i64 %115, %116, !taffo.info !413
  %118 = lshr i64 %117, 15, !taffo.info !413
  %u8_24fixp43 = trunc i64 %118 to i32, !taffo.info !21
  %s9_23fixp49 = lshr i32 %u8_24fixp43, 1, !taffo.info !415
  %s9_23fixp9 = load i32, i32* @params_cpKv.fixp, align 4, !taffo.info !19
  %119 = fmul float 1.638400e+04, %6, !taffo.info !551, !taffo.constinfo !90
  %s18_14fixp = fptosi float %119 to i32, !taffo.info !551
  %s18_14fixp14 = sub i32 %s18_14fixp, 54067, !taffo.info !551, !taffo.constinfo !416
  %120 = sext i32 %s9_23fixp9 to i64, !taffo.info !19
  %121 = sext i32 %s18_14fixp14 to i64, !taffo.info !551
  %122 = mul i64 %120, %121, !taffo.info !553
  %123 = ashr i64 %122, 14, !taffo.info !553
  %s9_23fixp31 = trunc i64 %123 to i32, !taffo.info !19
  %s9_23fixp41 = add i32 8388608, %s9_23fixp31, !taffo.info !19, !taffo.constinfo !300
  %124 = sext i32 %s9_23fixp49 to i64, !taffo.info !415
  %125 = sext i32 %s9_23fixp41 to i64, !taffo.info !19
  %126 = mul i64 %124, %125, !taffo.info !421
  %127 = ashr i64 %126, 23, !taffo.info !421
  %s9_23fixp55 = trunc i64 %127 to i32, !taffo.info !19
  %128 = fmul double 0x4160000000000000, %105, !taffo.info !343
  %129 = fptosi double %128 to i32, !taffo.info !343
  %s9_23fixp60 = sub i32 %129, %s9_23fixp55, !taffo.info !423
  %130 = sitofp i32 %s9_23fixp60 to float, !taffo.info !423
  %131 = fdiv float %130, 0x4160000000000000, !taffo.info !423
  %132 = getelementptr inbounds [2 x float], [2 x float]* %3, i64 0, i64 1, !taffo.initweight !107, !taffo.info !343
  store float %131, float* %132, align 4, !taffo.info !343
  br label %167

133:                                              ; preds = %67
  %134 = getelementptr inbounds [2 x float], [2 x float]* %3, i64 0, i64 1, !taffo.initweight !107, !taffo.info !343
  %135 = load float, float* %134, align 4, !taffo.initweight !108, !taffo.info !343
  %136 = fpext float %135 to double, !taffo.initweight !110, !taffo.info !343
  %137 = load i16, i16* getelementptr inbounds ([2 x i16], [2 x i16]* @params_cpOffset, i64 0, i64 1), align 2, !taffo.initweight !108, !taffo.info !1
  %138 = sext i16 %137 to i32, !taffo.initweight !110, !taffo.info !1
  %s17_15fixp3 = shl i32 %138, 15, !taffo.info !392
  %139 = load float, float* getelementptr inbounds ([3 x float], [3 x float]* @params_ilChessC, i64 0, i64 0), align 4, !taffo.initweight !108, !taffo.info !343
  %140 = fmul float 3.276800e+04, %139, !taffo.info !343
  %141 = fptosi float %140 to i32, !taffo.info !343
  %s17_15fixp39 = add i32 %s17_15fixp3, %141, !taffo.info !402
  %u8_24fixp = load i32, i32* @params_cpKta.fixp, align 4, !taffo.info !21
  %142 = fsub float %7, 2.500000e+01, !taffo.initweight !108, !taffo.info !343, !taffo.constinfo !408
  %143 = fmul float 0x4170000000000000, %142, !taffo.info !343, !taffo.constinfo !408
  %144 = fptoui float %143 to i32, !taffo.info !343
  %145 = zext i32 %u8_24fixp to i64, !taffo.info !21
  %146 = zext i32 %144 to i64, !taffo.info !343
  %147 = mul i64 %145, %146, !taffo.info !549
  %148 = lshr i64 %147, 24, !taffo.info !549
  %u8_24fixp20 = trunc i64 %148 to i32, !taffo.info !21
  %u8_24fixp33 = add i32 16777216, %u8_24fixp20, !taffo.info !21, !taffo.constinfo !300
  %149 = sext i32 %s17_15fixp39 to i64, !taffo.info !402
  %150 = zext i32 %u8_24fixp33 to i64, !taffo.info !21
  %151 = mul i64 %149, %150, !taffo.info !413
  %152 = lshr i64 %151, 15, !taffo.info !413
